(dp0
I0
(dp1
I0
(lp2
S'E72'
p3
aL72L
acnumpy.core.multiarray
scalar
p4
(cnumpy
dtype
p5
(S'f8'
p6
I0
I1
tp7
Rp8
(I3
S'<'
p9
NNNI-1
I-1
I0
tp10
bS'Y\x1b\x91c\xff@\x87@'
p11
tp12
Rp13
a(dp14
L241L
F0.7630403831135482
sL379L
F0.3116321242414415
sL140L
F0.2179932959843427
sL433L
F0.1633428076747805
sL359L
F0.9949730050284415
sa(dp15
L241L
F0.8922097739965258
sL379L
F0.08596540474016404
sL140L
F0.015508775759776737
sL433L
F0.0037071237608577398
sL359L
F0.9689476934156092
sasI1
(lp16
S'E12'
p17
aL12L
ag4
(g8
S'\x83$lR\x03\xf9\x9a@'
p18
tp19
Rp20
a(dp21
L241L
F0.8274397535715252
sL379L
F0.7149336796719581
sL140L
F0.6105017906520516
sL433L
F0.650917878607288
sL359L
F0.0824731644243002
sa(dp22
L241L
F0.925438335298565
sL379L
F0.8566706513814394
sL140L
F0.7307371228417584
sL433L
F0.7889947990014899
sL359L
F0.0001220844206023258
sassI1
(dp23
I0
(lp24
g3
aL72L
ag4
(g8
S'\xb0\xd4\x9cV\xdf=A@'
p25
tp26
Rp27
a(dp28
L359L
F1.017810923222595
sL241L
F0.7575792922131036
sL379L
F0.34668921709977635
sL140L
F0.24258544070644733
sL433L
F0.13334775291629022
sa(dp29
L241L
F0.8887069321691646
sL379L
F0.13813148072714068
sL140L
F0.02617898366922528
sL433L
F0.0013473887860665642
sL359L
F0.9721859752905092
sasI1
g16
ssI2
(dp30
I0
g2
sI1
g16
sI2
g16
ssI3
(dp31
I0
g2
sI1
g16
sI2
g16
sI3
g16
ssI4
(dp32
I0
g2
sI1
g16
sI2
g16
sI3
g16
sI4
g16
ssI5
(dp33
I0
g2
sI1
g16
sI2
g16
sI3
g16
sI4
g16
sI5
g16
ssI6
(dp34
I0
g2
sI1
g16
sI2
g16
sI3
g16
sI4
g16
sI5
g16
sI6
g16
ssI7
(dp35
I0
g2
sI1
g16
sI2
g16
sI3
g16
sI4
(lp36
g17
aL12L
ag4
(g8
S'\x84(\xb7y\xf4u\xa1@'
p37
tp38
Rp39
a(dp40
L359L
F0.08773213801737301
sL241L
F1.1336621692355058
sL379L
F0.7880887442090995
sL140L
F0.6480621972700341
sL433L
F0.799919660786149
sa(dp41
L241L
F0.9835848973882797
sL379L
F0.9067863777118625
sL140L
F0.7853115960679475
sL433L
F0.9128957490472567
sL359L
F0.0001662919853948974
sasI5
g16
ssI8
(dp42
I0
g2
sI1
g16
sI2
g16
sI3
g16
sI4
g16
sI5
g16
sI6
g16
sI7
g16
ssI9
(dp43
I0
g2
sI1
g16
sI2
g16
sI3
g16
sI4
g36
sI5
g16
sI6
g16
ssI10
(dp44
I0
g2
sI1
g16
sI2
g16
sI3
g16
sI4
g36
sI5
g36
sI6
g16
ssI11
(dp45
I0
g2
sI1
g16
sI2
g16
sI3
g16
sI4
g16
sI5
g36
sI6
g36
sI7
g16
ssI12
(dp46
I0
g2
sI1
g16
sI2
g16
sI3
g16
sI4
g36
sI5
g36
sI6
g16
sI7
g16
ssI13
(dp47
I0
g2
sI1
g16
sI2
g16
sI3
g16
sI4
g36
sI5
g36
sI6
g36
sI7
g16
ssI14
(dp48
I0
g2
sI1
g16
sI2
g16
sI3
g16
sI4
g36
sI5
g36
sI6
g36
sI7
g16
sI8
g16
ssI15
(dp49
I0
g2
sI1
g16
sI2
g16
sI3
g16
sI4
g36
sI5
g36
sI6
g36
sI7
g36
sI8
g16
ssI16
(dp50
I0
g2
sI1
g16
sI2
g16
sI3
g16
sI4
g36
sI5
g36
sI6
g36
sI7
g36
sI8
g16
sI9
g16
ssI17
(dp51
I0
g2
sI1
g16
sI2
g16
sI3
g16
sI4
g36
sI5
g36
sI6
g36
sI7
g36
sI8
g36
sI9
g16
ssI18
(dp52
I0
g2
sI1
g16
sI2
g16
sI3
g16
sI4
g36
sI5
g36
sI6
g36
sI7
g36
sI8
g36
sI9
g36
sI10
g16
ssI19
(dp53
I0
g2
sI1
g16
sI2
g16
sI3
g16
sI4
g36
sI5
g36
sI6
g36
sI7
g36
sI8
g36
sI9
g36
sI10
g36
sI11
g16
ssI20
(dp54
I0
g2
sI1
g16
sI2
g16
sI3
g16
sI4
g36
sI5
g36
sI6
g36
sI7
g36
sI8
g36
sI9
g36
sI10
g36
sI11
g36
sI12
g16
ssI21
(dp55
I0
g2
sI1
g16
sI2
g16
sI3
g16
sI4
g36
sI5
g36
sI6
g36
sI7
g36
sI8
g36
sI9
g36
sI10
g36
sI11
g36
sI12
g36
sI13
g16
ssI22
(dp56
I0
g2
sI1
g16
sI2
g16
sI3
g16
sI4
g36
sI5
g36
sI6
g36
sI7
g36
sI8
g36
sI9
g36
sI10
g36
sI11
g36
sI12
g36
sI13
g36
sI14
g16
ssI23
(dp57
I0
g2
sI1
g16
sI2
g16
sI3
g16
sI4
g36
sI5
g36
sI6
g36
sI7
g36
sI8
g36
sI9
g36
sI10
g36
sI11
g36
sI12
g36
sI13
g36
sI14
g36
sI15
g16
ssI24
(dp58
I0
g2
sI1
g16
sI2
g16
sI3
g16
sI4
g36
sI5
g36
sI6
g36
sI7
g36
sI8
g36
sI9
g36
sI10
g36
sI11
g36
sI12
g36
sI13
g36
sI14
g36
sI15
g36
sI16
g16
ssI25
(dp59
I0
g2
sI1
g16
sI2
g16
sI3
(lp60
g17
aL12L
ag4
(g8
S'<\xff\xe5\x1e\xf3\xfb\x96@'
p61
tp62
Rp63
a(dp64
L359L
F0.14856061501884538
sL241L
F0.872446445091324
sL379L
F0.906959876161034
sL140L
F0.7764301314357352
sL433L
F0.6015521020618249
sa(dp65
L241L
F0.9417757834292665
sL379L
F0.9515449592663331
sL140L
F0.9002937563311607
sL433L
F0.7159632621349343
sL359L
F0.0023102762873601465
sasI4
g36
sI5
g36
sI6
g36
sI7
g36
sI8
g36
sI9
g36
sI10
g36
sI11
g36
sI12
g36
sI13
g36
sI14
g36
sI15
g16
ssI26
(dp66
I0
g2
sI1
g16
sI2
g16
sI3
g16
sI4
g36
sI5
g36
sI6
g36
sI7
g36
sI8
g36
sI9
g36
sI10
g36
sI11
g36
sI12
g36
sI13
g36
sI14
g36
sI15
g36
sI16
g36
sI17
g16
ssI27
(dp67
I0
g2
sI1
g16
sI2
g16
sI3
g60
sI4
g36
sI5
g36
sI6
g36
sI7
g36
sI8
g36
sI9
g36
sI10
g36
sI11
g36
sI12
g36
sI13
g36
sI14
g36
sI15
g36
sI16
g16
ssI28
(dp68
I0
g2
sI1
g16
sI2
g16
sI3
g16
sI4
g36
sI5
g36
sI6
g36
sI7
g36
sI8
g36
sI9
g36
sI10
g36
sI11
g36
sI12
g36
sI13
g36
sI14
g36
sI15
g36
sI16
g36
sI17
g36
sI18
g16
ssI29
(dp69
I0
g2
sI1
g16
sI2
g16
sI3
g60
sI4
g36
sI5
g36
sI6
g36
sI7
g36
sI8
g36
sI9
g36
sI10
g36
sI11
g36
sI12
g36
sI13
g36
sI14
g36
sI15
g36
sI16
g36
sI17
g16
ssI30
(dp70
I0
g2
sI1
g16
sI2
g16
sI3
g16
sI4
g36
sI5
g36
sI6
g36
sI7
g36
sI8
g36
sI9
g36
sI10
g36
sI11
g36
sI12
g36
sI13
g36
sI14
g36
sI15
g36
sI16
g36
sI17
g36
sI18
g36
sI19
g16
ssI31
(dp71
I0
g2
sI1
g16
sI2
g16
sI3
g60
sI4
g36
sI5
g36
sI6
g36
sI7
g36
sI8
g36
sI9
g36
sI10
g36
sI11
g36
sI12
g36
sI13
g36
sI14
g36
sI15
g36
sI16
g36
sI17
g36
sI18
g16
ssI32
(dp72
I0
g2
sI1
g16
sI2
g16
sI3
g16
sI4
g36
sI5
g36
sI6
g36
sI7
g36
sI8
g36
sI9
g36
sI10
g36
sI11
g36
sI12
g36
sI13
g36
sI14
g36
sI15
g36
sI16
g36
sI17
g36
sI18
g36
sI19
g36
sI20
g16
ssI33
(dp73
I0
g2
sI1
g16
sI2
g16
sI3
g60
sI4
g36
sI5
g36
sI6
g36
sI7
g36
sI8
g36
sI9
g36
sI10
g36
sI11
g36
sI12
g36
sI13
g36
sI14
g36
sI15
g36
sI16
g36
sI17
g36
sI18
g36
sI19
g16
ssI34
(dp74
I0
g2
sI1
g16
sI2
g16
sI3
g16
sI4
g36
sI5
g36
sI6
g36
sI7
g36
sI8
g36
sI9
g36
sI10
g36
sI11
g36
sI12
g36
sI13
g36
sI14
g36
sI15
g36
sI16
g36
sI17
g36
sI18
g36
sI19
g36
sI20
g36
sI21
g16
ssI35
(dp75
I0
g2
sI1
g16
sI2
g16
sI3
g60
sI4
g36
sI5
g36
sI6
g36
sI7
g36
sI8
g36
sI9
g36
sI10
g36
sI11
g36
sI12
g36
sI13
g36
sI14
g36
sI15
g36
sI16
g36
sI17
g36
sI18
g36
sI19
g36
sI20
g16
ssI36
(dp76
I0
g2
sI1
g16
sI2
g16
sI3
g16
sI4
g36
sI5
g36
sI6
g36
sI7
g36
sI8
g36
sI9
g36
sI10
g36
sI11
g36
sI12
g36
sI13
g36
sI14
g36
sI15
g36
sI16
g36
sI17
g36
sI18
g36
sI19
g36
sI20
g36
sI21
g36
sI22
g16
ssI37
(dp77
I0
g2
sI1
g16
sI2
g16
sI3
g60
sI4
g36
sI5
g36
sI6
g36
sI7
g36
sI8
g36
sI9
g36
sI10
g36
sI11
g36
sI12
g36
sI13
g36
sI14
g36
sI15
g36
sI16
g36
sI17
g36
sI18
g36
sI19
g36
sI20
g36
sI21
g16
ssI38
(dp78
I0
g2
sI1
g16
sI2
g16
sI3
g16
sI4
g36
sI5
g36
sI6
g36
sI7
g36
sI8
g36
sI9
g36
sI10
g36
sI11
g36
sI12
g36
sI13
g36
sI14
g36
sI15
g36
sI16
g36
sI17
g36
sI18
g36
sI19
g36
sI20
g36
sI21
g36
sI22
g36
sI23
g16
ssI39
(dp79
I0
g2
sI1
g16
sI2
g16
sI3
g60
sI4
g36
sI5
g36
sI6
g36
sI7
g36
sI8
g36
sI9
g36
sI10
g36
sI11
g36
sI12
g36
sI13
g36
sI14
g36
sI15
g36
sI16
g36
sI17
g36
sI18
g36
sI19
g36
sI20
g36
sI21
g36
sI22
g16
ssI40
(dp80
I0
g2
sI1
g16
sI2
g16
sI3
g16
sI4
g36
sI5
g36
sI6
g36
sI7
g36
sI8
g36
sI9
g36
sI10
g36
sI11
g36
sI12
g36
sI13
g36
sI14
g36
sI15
g36
sI16
g36
sI17
g36
sI18
g36
sI19
g36
sI20
g36
sI21
g36
sI22
g36
sI23
g36
sI24
g16
ssI41
(dp81
I0
g2
sI1
g16
sI2
g16
sI3
g60
sI4
g36
sI5
g36
sI6
g36
sI7
g36
sI8
g36
sI9
g36
sI10
g36
sI11
g36
sI12
g36
sI13
g36
sI14
g36
sI15
g36
sI16
g36
sI17
g36
sI18
g36
sI19
g36
sI20
g36
sI21
g36
sI22
g36
sI23
g16
ssI42
(dp82
I0
g2
sI1
g16
sI2
g16
sI3
g16
sI4
g36
sI5
g36
sI6
g36
sI7
g36
sI8
g36
sI9
g36
sI10
g36
sI11
g36
sI12
g36
sI13
g36
sI14
g36
sI15
g36
sI16
g36
sI17
g36
sI18
g36
sI19
g36
sI20
g36
sI21
g36
sI22
g36
sI23
g36
sI24
g36
sI25
g16
ssI43
(dp83
I0
g2
sI1
g16
sI2
g16
sI3
g60
sI4
g36
sI5
g36
sI6
g36
sI7
g36
sI8
g36
sI9
g36
sI10
g36
sI11
g36
sI12
g36
sI13
g36
sI14
g36
sI15
g36
sI16
g36
sI17
g36
sI18
g36
sI19
g36
sI20
g36
sI21
g36
sI22
g36
sI23
g36
sI24
g16
ss.