(dp0
I0
F6802925.328793616
sI1
F214450.59107201223
sI2
F7.399421229946177e+28
sI3
F6.076815996671662e+35
sI4
F1.1062669679571987e+39
sI5
F1.3245531400071223e+41
sI6
F9.8002335138296e+40
sI7
F5.009334627506799e+40
sI8
F3.024392574817168e+39
sI9
F1.0275519144032472e+40
sI10
F7.161879913766433e+41
sI11
F6.7927572063954435e+40
sI12
F2.1197223211702378e+40
sI13
F1.153688192082922e+41
sI14
F1.5377365651693857e+40
sI15
F2.9281139272764826e+40
sI16
F2.0991221737776092e+39
sI17
F4.3703548270129226e+38
sI18
F2.2350396653167295e+37
sI19
F2.673429461301548e+35
sI20
F1.2480483849296574e+33
sI21
F1.9166580427402237e+31
sI22
F1.1414167277746713e+29
sI23
F1.000814931095841e+27
sI24
F2.245707129050516e+25
sI25
F3.171103281149001e+23
sI26
F3.5245741116700054e+23
sI27
F2.0955264121995256e+21
sI28
F3.2164502821157643e+21
sI29
F1.114585278810729e+19
sI30
F1.5501379177433812e+18
sI31
F9271222939607848.0
sI32
F7279422492662219.0
sI33
F24782486755063.754
sI34
F18293492409645.55
sI35
F199176264902.5667
sI36
F55661635286.21
sI37
F386689868.0513305
sI38
F177526544.9746793
sI39
F1833262.1300437124
sI40
F782186.9225896333
sI41
F4922.175619423858
sI42
F1394.9199430384854
sI43
F19.96459892373648
s.