(dp0
I0
F1.018672738452083
sI1
F1.0349444077819139
sI2
F1.142131393790594
sI3
F1.2066639497162424
sI4
F1.2463129270330358
sI5
F1.2731405744260784
sI6
F1.2924991217926212
sI7
F1.3022991437609623
sI8
F1.307126146096957
sI9
F1.3176820447064306
sI10
F1.343141600051832
sI11
F1.3516599771011677
sI12
F1.3516599771011681
sI13
F1.3742482221482448
sI14
F1.3784312695983756
sI15
F1.3987274846054647
sI16
F1.400067567954245
sI17
F1.4184924901769294
sI18
F1.4347849331559956
sI19
F1.4484457789293126
sI20
F1.4600648051392615
sI21
F1.4700678456996332
sI22
F1.4787700423738754
sI23
F1.4864096102108797
sI24
F1.493169956060449
sI25
F1.4951241738321088
sI26
F1.4991945816399341
sI27
F1.5013933519607474
sI28
F1.5045973752676938
sI29
F1.5069791772108725
sI30
F1.5094698750719497
sI31
F1.511987593239363
sI32
F1.5138864946779176
sI33
F1.516503722020127
sI34
F1.517908348361361
sI35
F1.5205967390656125
sI36
F1.5215860948188031
sI37
F1.524323440249308
sI38
F1.524962081231982
sI39
F1.5277308923259185
sI40
F1.528071980553853
sI41
F1.5308584304805382
sI42
F1.5309460564573953
sI43
F1.533739183166276
s.