(dp0
I0
(dp1
I0
(lp2
S'E55'
p3
aL55L
acnumpy.core.multiarray
scalar
p4
(cnumpy
dtype
p5
(S'f8'
p6
I0
I1
tp7
Rp8
(I3
S'<'
p9
NNNI-1
I-1
I0
tp10
bS'\x8d\x1e\xb94\xe2o\xab@'
p11
tp12
Rp13
a(dp14
L331L
F0.9989009492564946
sL164L
F0.0
sL230L
F0.0
sL326L
F0.0
sL296L
F0.664204066619277
sL425L
F0.7514109087642282
sL171L
F0.207851693732664
sL456L
F0.0
sL310L
F0.7142242400441319
sL446L
F0.7366066984832287
sa(dp15
L331L
g4
(g8
S'\x05\x8f0\x8e\xdd\xec\xea?'
p16
tp17
Rp18
sL164L
g4
(g8
S'\x00\x00\x00\x00\x00\x00\x00\x00'
p19
tp20
Rp21
sL230L
g4
(g8
S'\x00\x00\x00\x00\x00\x00\x00\x00'
p22
tp23
Rp24
sL326L
g4
(g8
S'\x00\x00\x00\x00\x00\x00\x00\x00'
p25
tp26
Rp27
sL296L
g4
(g8
S'Y\x93\xdc\xcci]\xe6?'
p28
tp29
Rp30
sL425L
g4
(g8
S',\x05\xaf\x91\x04\x91\xe8?'
p31
tp32
Rp33
sL171L
g4
(g8
S'\xd2?\x849@\xcb\x85?'
p34
tp35
Rp36
sL456L
g4
(g8
S'\x00\x00\x00\x00\x00\x00\x00\x00'
p37
tp38
Rp39
sL310L
g4
(g8
S'\x01]Y\xdb\x1e\xc6\xe7?'
p40
tp41
Rp42
sL446L
g4
(g8
S'\x81E\xd2e\x00F\xe8?'
p43
tp44
Rp45
sasI1
(lp46
S'E34'
p47
aL34L
ag4
(g8
S'4\xd4\x9a \x99\xf4t@'
p48
tp49
Rp50
a(dp51
L331L
F0.6631037057377398
sL164L
F0.6145612704567611
sL230L
F0.9837769472505897
sL326L
F0.0
sL296L
F0.0
sL425L
F0.0
sL171L
F0.6285472821909934
sL456L
F0.0
sL310L
F0.900702937040478
sL446L
F0.0
sa(dp52
L331L
g4
(g8
S'\xb9C>\xdeh\xb1\xe9?'
p53
tp54
Rp55
sL164L
g4
(g8
S'\x98\xfc\xba\xa6\xd4\x8e\xe7?'
p56
tp57
Rp58
sL230L
g4
(g8
S'%\x05\xc6\xc9P\xe8\xee?'
p59
tp60
Rp61
sL326L
g4
(g8
S'\x00\x00\x00\x00\x00\x00\x00\x00'
p62
tp63
Rp64
sL296L
g4
(g8
S'\x00\x00\x00\x00\x00\x00\x00\x00'
p65
tp66
Rp67
sL425L
g4
(g8
S'\x00\x00\x00\x00\x00\x00\x00\x00'
p68
tp69
Rp70
sL171L
g4
(g8
S'\xb6\x96\xc2\xa2U<\xe8?'
p71
tp72
Rp73
sL456L
g4
(g8
S'\x00\x00\x00\x00\x00\x00\x00\x00'
p74
tp75
Rp76
sL310L
g4
(g8
S'\xbc\x98r\xb5\xfdZ\xee?'
p77
tp78
Rp79
sL446L
g4
(g8
S'\x00\x00\x00\x00\x00\x00\x00\x00'
p80
tp81
Rp82
sasI2
(lp83
S'E67'
p84
aL67L
ag4
(g8
S'\x9b\xf7\\\x01\x94\x08\x8c@'
p85
tp86
Rp87
a(dp88
L331L
F0.0
sL164L
F0.027484329184517264
sL230L
F0.0
sL326L
F0.2813227765727788
sL296L
F0.24617857323028147
sL425L
F0.7922120478469878
sL171L
F0.4617506612557918
sL456L
F0.0
sL310L
F0.8884189159143716
sL446L
F0.8878573798574507
sa(dp89
L331L
g4
(g8
S'\x00\x00\x00\x00\x00\x00\x00\x00'
p90
tp91
Rp92
sL164L
g4
(g8
S'XZ\xb6ow\xac\xa0>'
p93
tp94
Rp95
sL230L
g4
(g8
S'\x00\x00\x00\x00\x00\x00\x00\x00'
p96
tp97
Rp98
sL326L
g4
(g8
S'\x8d\x91\xe5\xaf]\x0f\xab?'
p99
tp100
Rp101
sL296L
g4
(g8
S't\xeb\x0b:\xf3\x82\x9c?'
p102
tp103
Rp104
sL425L
g4
(g8
S'\x99Z\x07\xce\x04\xcd\xec?'
p105
tp106
Rp107
sL171L
g4
(g8
S'\x118\xdc*\x8cv\xd9?'
p108
tp109
Rp110
sL456L
g4
(g8
S'\x00\x00\x00\x00\x00\x00\x00\x00'
p111
tp112
Rp113
sL310L
g4
(g8
S'\xb4`\\\x02\xe6\xfd\xed?'
p114
tp115
Rp116
sL446L
g4
(g8
S'E\xf6\x17s\x99\xfc\xed?'
p117
tp118
Rp119
sasI3
(lp120
S'E67'
p121
aL67L
ag4
(g8
S'\xcf\xdc\xfb\xf6\xfb\xaa\xaa@'
p122
tp123
Rp124
a(dp125
L331L
F0.0
sL164L
F0.8843491997104138
sL230L
F0.0
sL326L
F0.9372707370202988
sL296L
F0.8169074240140617
sL425L
F0.07883406314067543
sL171L
F0.473235895158723
sL456L
F0.0
sL310L
F0.7095392956398427
sL446L
F0.729440808063373
sa(dp126
L331L
g4
(g8
S'\x00\x00\x00\x00\x00\x00\x00\x00'
p127
tp128
Rp129
sL164L
g4
(g8
S'\xd2~\x7f\xb5\x9br\xea?'
p130
tp131
Rp132
sL230L
g4
(g8
S'\x00\x00\x00\x00\x00\x00\x00\x00'
p133
tp134
Rp135
sL326L
g4
(g8
S'\xf1R::+\xd1\xea?'
p136
tp137
Rp138
sL296L
g4
(g8
S'\xca\xb0\xb7\xf1?\xc3\xe9?'
p139
tp140
Rp141
sL425L
g4
(g8
S'\x86\x016\xa4\xf0S\x16?'
p142
tp143
Rp144
sL171L
g4
(g8
S'\xcc\xb2\x1c\x9b\xf0&\xd8?'
p145
tp146
Rp147
sL456L
g4
(g8
S'\x00\x00\x00\x00\x00\x00\x00\x00'
p148
tp149
Rp150
sL310L
g4
(g8
S'\xa3N\xba\xe8\x86\xd5\xe7?'
p151
tp152
Rp153
sL446L
g4
(g8
S'\x1f\xc6\x1eC{L\xe8?'
p154
tp155
Rp156
sasI4
(lp157
S'E45'
p158
aL45L
ag4
(g8
S'Ilyr\xbe\xb5\x95@'
p159
tp160
Rp161
a(dp162
L331L
F0.4656483721919358
sL164L
F0.837006026180461
sL230L
F0.522353588603437
sL326L
F0.7528372714295983
sL296L
F0.0
sL425L
F0.22550205048173666
sL171L
F0.0
sL456L
F0.0
sL310L
F0.7899267724715173
sL446L
F0.0
sa(dp163
L331L
g4
(g8
S'\xd4\x84\x12v\\\xc0\xd9?'
p164
tp165
Rp166
sL164L
g4
(g8
S'xk\xb3\xf1\xac\x0b\xed?'
p167
tp168
Rp169
sL230L
g4
(g8
S'(\x04\x86\x1aZT\xe1?'
p170
tp171
Rp172
sL326L
g4
(g8
S'\x94\x06\x11\xc4\xa8\xad\xeb?'
p173
tp174
Rp175
sL296L
g4
(g8
S'\x00\x00\x00\x00\x00\x00\x00\x00'
p176
tp177
Rp178
sL425L
g4
(g8
S'L\x10\x9cs\x1eR\x92?'
p179
tp180
Rp181
sL171L
g4
(g8
S'\x00\x00\x00\x00\x00\x00\x00\x00'
p182
tp183
Rp184
sL456L
g4
(g8
S'\x00\x00\x00\x00\x00\x00\x00\x00'
p185
tp186
Rp187
sL310L
g4
(g8
S'\xc9k9/O_\xec?'
p188
tp189
Rp190
sL446L
g4
(g8
S'\x00\x00\x00\x00\x00\x00\x00\x00'
p191
tp192
Rp193
sasI5
(lp194
S'E45'
p195
aL45L
ag4
(g8
S'Z\xd1r\x0f\xd2gg@'
p196
tp197
Rp198
a(dp199
L331L
F0.8489605023059994
sL164L
F0.1879381292965263
sL230L
F0.35204682825133204
sL326L
F0.5982306583318859
sL296L
F0.0
sL425L
F0.42701021092943847
sL171L
F0.0
sL456L
F0.0
sL310L
F0.8880570456385612
sL446L
F0.0
sa(dp200
L331L
g4
(g8
S'\x7fz\nd\x9a\xde\xed?'
p201
tp202
Rp203
sL164L
g4
(g8
S'\x10\xcd\xd0uO}~?'
p204
tp205
Rp206
sL230L
g4
(g8
S'Y 0\xb9\xb4\xdf\xc2?'
p207
tp208
Rp209
sL326L
g4
(g8
S'\xed\xf3\x9c\x90B\xb8\xe6?'
p210
tp211
Rp212
sL296L
g4
(g8
S'\x00\x00\x00\x00\x00\x00\x00\x00'
p213
tp214
Rp215
sL425L
g4
(g8
S'\x91{\x9dh\xdf\xfb\xd3?'
p216
tp217
Rp218
sL171L
g4
(g8
S'\x00\x00\x00\x00\x00\x00\x00\x00'
p219
tp220
Rp221
sL456L
g4
(g8
S'\x00\x00\x00\x00\x00\x00\x00\x00'
p222
tp223
Rp224
sL310L
g4
(g8
S'9\x08\x12\xb0\xfaE\xee?'
p225
tp226
Rp227
sL446L
g4
(g8
S'\x00\x00\x00\x00\x00\x00\x00\x00'
p228
tp229
Rp230
sasI6
(lp231
S'E45'
p232
aL45L
ag4
(g8
S'\xbeo\xe4\x96\xca!\x91@'
p233
tp234
Rp235
a(dp236
L331L
F0.05002913670614362
sL164L
F0.4212031653150916
sL230L
F0.6573130236938596
sL326L
F0.41257892292924225
sL296L
F0.0
sL425L
F0.3152158905286342
sL171L
F0.0
sL456L
F0.0
sL310L
F0.9870577205438167
sL446L
F0.0
sa(dp237
L331L
g4
(g8
S'4\xd0\xe0,\x92\xb9\xe4>'
p238
tp239
Rp240
sL164L
g4
(g8
S'{>ma\xeb\xc8\xd2?'
p241
tp242
Rp243
sL230L
g4
(g8
S'\xb5:\xd9K\xaf!\xe9?'
p244
tp245
Rp246
sL326L
g4
(g8
S'q]#F\x1cs\xd1?'
p247
tp248
Rp249
sL296L
g4
(g8
S'\x00\x00\x00\x00\x00\x00\x00\x00'
p250
tp251
Rp252
sL425L
g4
(g8
S'\xd0\xbcR\xa1|\xd8\xb6?'
p253
tp254
Rp255
sL171L
g4
(g8
S'\x00\x00\x00\x00\x00\x00\x00\x00'
p256
tp257
Rp258
sL456L
g4
(g8
S'\x00\x00\x00\x00\x00\x00\x00\x00'
p259
tp260
Rp261
sL310L
g4
(g8
S'\xd8\x8fCI\xa6\x83\xee?'
p262
tp263
Rp264
sL446L
g4
(g8
S'\x00\x00\x00\x00\x00\x00\x00\x00'
p265
tp266
Rp267
sasI7
(lp268
S'E45'
p269
aL45L
ag4
(g8
S"'\x7f!PA6\x9e@"
p270
tp271
Rp272
a(dp273
L331L
F0.6175938521046191
sL164L
F0.045482743764296174
sL230L
F0.6474319121334702
sL326L
F0.9524411845486611
sL296L
F0.0
sL425L
F0.6737724731210619
sL171L
F0.0
sL456L
F0.0
sL310L
F0.900547961704433
sL446L
F0.0
sa(dp274
L331L
g4
(g8
S'\xe3 J\xbe\xde\xb1\xe6?'
p275
tp276
Rp277
sL164L
g4
(g8
S'\xd9T\xde<\xb1\xf8\xd8>'
p278
tp279
Rp280
sL230L
g4
(g8
S'\xaa>\xef1\x01\xff\xe7?'
p281
tp282
Rp283
sL326L
g4
(g8
S'\x14\x9e\x07vSj\xed?'
p284
tp285
Rp286
sL296L
g4
(g8
S'\x00\x00\x00\x00\x00\x00\x00\x00'
p287
tp288
Rp289
sL425L
g4
(g8
S'L\x12\x8d\x18\x07\xf8\xe8?'
p290
tp291
Rp292
sL171L
g4
(g8
S'\x00\x00\x00\x00\x00\x00\x00\x00'
p293
tp294
Rp295
sL456L
g4
(g8
S'\x00\x00\x00\x00\x00\x00\x00\x00'
p296
tp297
Rp298
sL310L
g4
(g8
S'I=\xa8\xac\x1f\x0e\xed?'
p299
tp300
Rp301
sL446L
g4
(g8
S'\x00\x00\x00\x00\x00\x00\x00\x00'
p302
tp303
Rp304
sassI1
(dp305
I0
g2
sI1
g46
sI2
g83
sI3
g120
sI4
g120
sI5
g157
sI6
g194
sI7
g231
sI8
g268
ssI2
(dp306
I0
g2
sI1
g46
sI2
g83
sI3
g120
sI4
g157
sI5
g194
sI6
(lp307
g232
aL45L
ag4
(g8
S'\x89\xf9\xdbi\xcaL\x90@'
p308
tp309
Rp310
a(dp311
L171L
F0.0
sL164L
F0.6279908331024017
sL230L
F0.6739314309703044
sL326L
F0.5134656417246102
sL296L
F0.0
sL425L
F0.3803125856957991
sL331L
F1e-05
sL456L
F0.0
sL310L
F0.9474599649809113
sL446L
F0.0
sa(dp312
L331L
g4
(g8
S'\x00\xe7\x80$\xc8\x89\x0e;'
p313
tp314
Rp315
sL164L
g4
(g8
S'\xca\xae\x04F\x03\xec\xe7?'
p316
tp317
Rp318
sL230L
g4
(g8
S'\xdbL\xa3\x92\xd6\xc7\xe9?'
p319
tp320
Rp321
sL326L
g4
(g8
S'\x89X\xe2\x19\xd3\xd5\xe0?'
p322
tp323
Rp324
sL296L
g4
(g8
S'\x00\x00\x00\x00\x00\x00\x00\x00'
p325
tp326
Rp327
sL425L
g4
(g8
S'\xb4\x1b\x9a\xcc\x7f\xa1\xc9?'
p328
tp329
Rp330
sL171L
g4
(g8
S'\x00\x00\x00\x00\x00\x00\x00\x00'
p331
tp332
Rp333
sL456L
g4
(g8
S'\x00\x00\x00\x00\x00\x00\x00\x00'
p334
tp335
Rp336
sL310L
g4
(g8
S',\x9b?\xd2\x8cU\xee?'
p337
tp338
Rp339
sL446L
g4
(g8
S'\x00\x00\x00\x00\x00\x00\x00\x00'
p340
tp341
Rp342
sasI7
g268
ssI3
(dp343
I0
g2
sI1
g46
sI2
g83
sI3
g120
sI4
g120
sI5
g157
sI6
g194
sI7
g231
sI8
(lp344
g269
aL45L
ag4
(g8
S')n\x12\xd6#\x90\x9d@'
p345
tp346
Rp347
a(dp348
L171L
F0.0
sL164L
F1e-05
sL230L
F0.5771138147095657
sL326L
F0.9648020294943733
sL296L
F0.0
sL425L
F1.1714986801644207
sL331L
F1.0778074543035796
sL456L
F0.0
sL310L
F1.0324057595743148
sL446L
F0.0
sa(dp349
L331L
g4
(g8
S'\xb0\xfaQ\x96C\x00\xee?'
p350
tp351
Rp352
sL164L
g4
(g8
S'\x99,-\xb4|\xa3\r;'
p353
tp354
Rp355
sL230L
g4
(g8
S'\xd1\x0f#\xff\xdf\x97\xe4?'
p356
tp357
Rp358
sL326L
g4
(g8
S':\xfc\xcan\x93\x8a\xed?'
p359
tp360
Rp361
sL296L
g4
(g8
S'\x00\x00\x00\x00\x00\x00\x00\x00'
p362
tp363
Rp364
sL425L
g4
(g8
S'M3\xe4k\xb87\xee?'
p365
tp366
Rp367
sL171L
g4
(g8
S'\x00\x00\x00\x00\x00\x00\x00\x00'
p368
tp369
Rp370
sL456L
g4
(g8
S'\x00\x00\x00\x00\x00\x00\x00\x00'
p371
tp372
Rp373
sL310L
g4
(g8
S'\xae\xef8{\xac\xd9\xed?'
p374
tp375
Rp376
sL446L
g4
(g8
S'\x00\x00\x00\x00\x00\x00\x00\x00'
p377
tp378
Rp379
sassI4
(dp380
I0
g2
sI1
g46
sI2
g83
sI3
g120
sI4
g120
sI5
g157
sI6
g194
sI7
g231
sI8
g268
sI9
g268
ssI5
(dp381
I0
g2
sI1
g46
sI2
g83
sI3
g120
sI4
g120
sI5
g157
sI6
g194
sI7
(lp382
g232
aL45L
ag4
(g8
S'\xbcvS\xa3\xafX\x90@'
p383
tp384
Rp385
a(dp386
L171L
F0.0
sL164L
F0.4159511188747748
sL230L
F0.5549439089028682
sL326L
F0.40766600359233734
sL296L
F0.0
sL425L
F0.6015929048179598
sL331L
F0.19266144285517986
sL456L
F0.0
sL310L
F0.9410660367480826
sL446L
F0.0
sa(dp387
L331L
g4
(g8
S'\x86g\xe0f\n\x05\x81?'
p388
tp389
Rp390
sL164L
g4
(g8
S'\xaa\x91\xd4\xa6\xd7\xfd\xd1?'
p391
tp392
Rp393
sL230L
g4
(g8
S'\x98\xbe\xaa\x1b\x8c\xcf\xe3?'
p394
tp395
Rp396
sL326L
g4
(g8
S'q\x80\x18h\xcd\xb9\xd0?'
p397
tp398
Rp399
sL296L
g4
(g8
S'\x00\x00\x00\x00\x00\x00\x00\x00'
p400
tp401
Rp402
sL425L
g4
(g8
S'\xc68\xb4\xdb\x88\x9b\xe6?'
p403
tp404
Rp405
sL171L
g4
(g8
S'\x00\x00\x00\x00\x00\x00\x00\x00'
p406
tp407
Rp408
sL456L
g4
(g8
S'\x00\x00\x00\x00\x00\x00\x00\x00'
p409
tp410
Rp411
sL310L
g4
(g8
S'\xb4\xa7\xbcRvJ\xee?'
p412
tp413
Rp414
sL446L
g4
(g8
S'\x00\x00\x00\x00\x00\x00\x00\x00'
p415
tp416
Rp417
sasI8
g268
ssI6
(dp418
I0
g2
sI1
g46
sI2
g83
sI3
g120
sI4
g120
sI5
g120
sI6
g157
sI7
g194
sI8
g231
sI9
g268
ssI7
(dp419
I0
g2
sI1
g46
sI2
g83
sI3
g120
sI4
g120
sI5
g157
sI6
g194
sI7
g307
sI8
g268
ssI8
(dp420
I0
g2
sI1
g46
sI2
g83
sI3
g120
sI4
g120
sI5
g120
sI6
g157
sI7
g194
sI8
g231
sI9
g344
ssI9
(dp421
I0
g2
sI1
g46
sI2
g83
sI3
g120
sI4
g120
sI5
g157
sI6
g194
sI7
g231
sI8
g344
sI9
g344
ssI10
(dp422
I0
g2
sI1
g46
sI2
g83
sI3
(lp423
g121
aL67L
ag4
(g8
S'\xeb\xb6\xa0\xbdNa\xaa@'
p424
tp425
Rp426
a(dp427
L171L
F0.5993310008444639
sL164L
F0.6638728968683884
sL230L
F0.0
sL326L
F1.6116805947295545
sL296L
F0.9676181423600742
sL425L
F0.6089146840749672
sL331L
F0.0
sL456L
F0.0
sL310L
F0.7676695173330486
sL446L
F1.1977552401136475
sa(dp428
L331L
g4
(g8
S'\x00\x00\x00\x00\x00\x00\x00\x00'
p429
tp430
Rp431
sL164L
g4
(g8
S'hT\x12YY\x94\xe6?'
p432
tp433
Rp434
sL230L
g4
(g8
S'\x00\x00\x00\x00\x00\x00\x00\x00'
p435
tp436
Rp437
sL326L
g4
(g8
S'\xbfA\xcb\xdd\x94\xf8\xeb?'
p438
tp439
Rp440
sL296L
g4
(g8
S"'Lg\xe5\xff\r\xeb?"
p441
tp442
Rp443
sL425L
g4
(g8
S'\xb2\xa5\xf71\x18m\xe4?'
p444
tp445
Rp446
sL171L
g4
(g8
S'\x94S\xf8!T\xfa\xe3?'
p447
tp448
Rp449
sL456L
g4
(g8
S'\x00\x00\x00\x00\x00\x00\x00\x00'
p450
tp451
Rp452
sL310L
g4
(g8
S'\xc1kDs\xbd\x1b\xe9?'
p453
tp454
Rp455
sL446L
g4
(g8
S'\x1f\xa5\x8a\xd5C\xb3\xeb?'
p456
tp457
Rp458
sasI4
g120
sI5
g157
sI6
g194
sI7
g231
sI8
g268
sI9
g268
ssI11
(dp459
I0
g2
sI1
g46
sI2
g83
sI3
g120
sI4
g120
sI5
(lp460
g158
aL45L
ag4
(g8
S'\xc0\x17\x96\xc5\xc8\x98\x96@'
p461
tp462
Rp463
a(dp464
L171L
F0.0
sL164L
F1.0217275682291234
sL230L
F0.9036028233851527
sL326L
F0.7753963479365914
sL296L
F0.0
sL425L
F0.4412894584419228
sL331L
F0.5662517947635001
sL456L
F0.0
sL310L
F0.9734637908184344
sL446L
F0.0
sa(dp465
L331L
g4
(g8
S'\xee\xe0\xf0\x0emL\xe4?'
p466
tp467
Rp468
sL164L
g4
(g8
S'qH,\xe7\xcaW\xee?'
p469
tp470
Rp471
sL230L
g4
(g8
S'\xf7yc\xb2\xf6\xa7\xed?'
p472
tp473
Rp474
sL326L
g4
(g8
S'2+z0\xc7\x10\xec?'
p475
tp476
Rp477
sL296L
g4
(g8
S'\x00\x00\x00\x00\x00\x00\x00\x00'
p478
tp479
Rp480
sL425L
g4
(g8
S'\xf4n\x8f9\x1b\xc2\xd5?'
p481
tp482
Rp483
sL171L
g4
(g8
S'\x00\x00\x00\x00\x00\x00\x00\x00'
p484
tp485
Rp486
sL456L
g4
(g8
S'\x00\x00\x00\x00\x00\x00\x00\x00'
p487
tp488
Rp489
sL310L
g4
(g8
S'\x9f\x95\nn-\x1e\xee?'
p490
tp491
Rp492
sL446L
g4
(g8
S'\x00\x00\x00\x00\x00\x00\x00\x00'
p493
tp494
Rp495
sasI6
g194
sI7
g231
sI8
g268
sI9
g268
ssI12
(dp496
I0
g2
sI1
g46
sI2
g83
sI3
g120
sI4
g120
sI5
g120
sI6
g120
sI7
g157
sI8
g194
sI9
g231
sI10
g344
ssI13
(dp497
I0
g2
sI1
g46
sI2
g83
sI3
g423
sI4
g423
sI5
g120
sI6
g157
sI7
g194
sI8
g231
sI9
g268
sI10
g268
ssI14
(dp498
I0
g2
sI1
g46
sI2
g83
sI3
g423
sI4
g423
sI5
g423
sI6
g120
sI7
g157
sI8
g194
sI9
g231
sI10
g268
sI11
g268
ssI15
(dp499
I0
g2
sI1
g46
sI2
g46
sI3
g83
sI4
g423
sI5
g423
sI6
g423
sI7
g120
sI8
g157
sI9
g194
sI10
g231
sI11
g268
sI12
g268
ssI16
(dp500
I0
g2
sI1
g46
sI2
g83
sI3
g423
sI4
g423
sI5
g423
sI6
g423
sI7
g120
sI8
g157
sI9
g194
sI10
g231
sI11
g268
sI12
g268
ssI17
(dp501
I0
g2
sI1
g46
sI2
g83
sI3
g423
sI4
g423
sI5
g423
sI6
g423
sI7
g423
sI8
g120
sI9
g157
sI10
g194
sI11
g231
sI12
g268
sI13
g268
ssI18
(dp502
I0
g2
sI1
g46
sI2
g83
sI3
g423
sI4
g423
sI5
g423
sI6
g423
sI7
g423
sI8
g423
sI9
g120
sI10
g157
sI11
g194
sI12
g231
sI13
g268
sI14
g268
ssI19
(dp503
I0
g2
sI1
g46
sI2
g83
sI3
g423
sI4
g423
sI5
g423
sI6
g423
sI7
g423
sI8
g423
sI9
g423
sI10
g120
sI11
g157
sI12
g194
sI13
g231
sI14
g268
sI15
g268
ssI20
(dp504
I0
g2
sI1
g46
sI2
g83
sI3
g423
sI4
g423
sI5
g423
sI6
g423
sI7
g423
sI8
g423
sI9
g423
sI10
g120
sI11
g157
sI12
g194
sI13
(lp505
g232
aL45L
ag4
(g8
S'5\xad\xf7\n\xaf\x17\x8f@'
p506
tp507
Rp508
a(dp509
L171L
F0.0
sL164L
F0.46603957651954736
sL230L
F0.710492140853804
sL326L
F0.5699382522740539
sL296L
F0.0
sL425L
F0.4713425130424494
sL331L
F0.060660820428239684
sL456L
F0.0
sL310L
F1.033772320320918
sL446L
F0.0
sa(dp510
L331L
g4
(g8
S'5 A*/:\xfb>'
p511
tp512
Rp513
sL164L
g4
(g8
S',-[mu\x1c\xda?'
p514
tp515
Rp516
sL230L
g4
(g8
S'H\xd7\x0c\xa8\xcd\xf5\xea?'
p517
tp518
Rp519
sL326L
g4
(g8
S'E\xbaB\x93\xa0\xcd\xe4?'
p520
tp521
Rp522
sL296L
g4
(g8
S'\x00\x00\x00\x00\x00\x00\x00\x00'
p523
tp524
Rp525
sL425L
g4
(g8
S')\xac \x1a|\xfb\xda?'
p526
tp527
Rp528
sL171L
g4
(g8
S'\x00\x00\x00\x00\x00\x00\x00\x00'
p529
tp530
Rp531
sL456L
g4
(g8
S'\x00\x00\x00\x00\x00\x00\x00\x00'
p532
tp533
Rp534
sL310L
g4
(g8
S'\n\x1b\xed?g\xcc\xee?'
p535
tp536
Rp537
sL446L
g4
(g8
S'\x00\x00\x00\x00\x00\x00\x00\x00'
p538
tp539
Rp540
sasI14
g268
sI15
g268
ssI21
(dp541
I0
g2
sI1
g46
sI2
g83
sI3
g423
sI4
g423
sI5
g423
sI6
g423
sI7
g423
sI8
g423
sI9
g423
sI10
g423
sI11
g120
sI12
g157
sI13
g194
sI14
g231
sI15
g268
sI16
g268
ssI22
(dp542
I0
g2
sI1
g46
sI2
g83
sI3
g423
sI4
g423
sI5
g423
sI6
g423
sI7
g423
sI8
g423
sI9
g423
sI10
g423
sI11
g120
sI12
g157
sI13
g194
sI14
g505
sI15
g268
sI16
g268
ssI23
(dp543
I0
g2
sI1
g46
sI2
g83
sI3
g423
sI4
g423
sI5
g423
sI6
g423
sI7
g423
sI8
g423
sI9
g423
sI10
g423
sI11
g423
sI12
g120
sI13
g157
sI14
g194
sI15
g505
sI16
g268
sI17
g268
ssI24
(dp544
I0
g2
sI1
g46
sI2
g83
sI3
g423
sI4
g423
sI5
g423
sI6
g423
sI7
g423
sI8
g423
sI9
g423
sI10
g423
sI11
g423
sI12
g423
sI13
g120
sI14
g157
sI15
g194
sI16
g505
sI17
g268
sI18
g268
ssI25
(dp545
I0
g2
sI1
g46
sI2
g83
sI3
g423
sI4
g423
sI5
g423
sI6
g423
sI7
g423
sI8
g423
sI9
g423
sI10
g423
sI11
g423
sI12
g423
sI13
g423
sI14
g120
sI15
g157
sI16
g194
sI17
g505
sI18
g268
sI19
g268
ssI26
(dp546
I0
g2
sI1
g46
sI2
g83
sI3
g423
sI4
g423
sI5
g423
sI6
g423
sI7
g423
sI8
g423
sI9
g423
sI10
g423
sI11
g423
sI12
g423
sI13
g423
sI14
g423
sI15
g120
sI16
g157
sI17
g194
sI18
g505
sI19
g268
sI20
g268
ssI27
(dp547
I0
g2
sI1
g46
sI2
g83
sI3
g423
sI4
g423
sI5
g423
sI6
g423
sI7
g423
sI8
g423
sI9
g423
sI10
g423
sI11
g423
sI12
g423
sI13
g423
sI14
g423
sI15
g423
sI16
g120
sI17
g157
sI18
g194
sI19
g505
sI20
g268
sI21
g268
ssI28
(dp548
I0
g2
sI1
g46
sI2
g83
sI3
g423
sI4
g423
sI5
g423
sI6
g423
sI7
g423
sI8
g423
sI9
g423
sI10
g423
sI11
g423
sI12
g423
sI13
g423
sI14
g423
sI15
g423
sI16
g423
sI17
g120
sI18
g157
sI19
g194
sI20
g505
sI21
g268
sI22
g268
ssI29
(dp549
I0
g2
sI1
g46
sI2
g83
sI3
g423
sI4
g423
sI5
g423
sI6
g423
sI7
g423
sI8
g423
sI9
g423
sI10
g423
sI11
g423
sI12
g423
sI13
g423
sI14
g423
sI15
g423
sI16
g423
sI17
g423
sI18
g120
sI19
g157
sI20
g194
sI21
g505
sI22
g268
sI23
g268
ssI30
(dp550
I0
g2
sI1
g46
sI2
g83
sI3
g423
sI4
g423
sI5
g423
sI6
g423
sI7
g423
sI8
g423
sI9
g423
sI10
g423
sI11
g423
sI12
g423
sI13
g423
sI14
g423
sI15
g423
sI16
g423
sI17
g423
sI18
g423
sI19
g120
sI20
g157
sI21
g194
sI22
g505
sI23
g268
sI24
g268
ssI31
(dp551
I0
g2
sI1
g46
sI2
(lp552
g84
aL67L
ag4
(g8
S'[~]rX\xc4\x8e@'
p553
tp554
Rp555
a(dp556
L171L
F0.6172349893119071
sL164L
F0.052042586565666085
sL230L
F0.0
sL326L
F0.2002859441227858
sL296L
F0.4513350493234696
sL425L
F0.8421417900878111
sL331L
F0.0
sL456L
F0.0
sL310L
F0.8969929594743475
sL446L
F1.0266685892414402
sa(dp557
L331L
g4
(g8
S'\x00\x00\x00\x00\x00\x00\x00\x00'
p558
tp559
Rp560
sL164L
g4
(g8
S'\xd4es\x1a\x02Q\xe9>'
p561
tp562
Rp563
sL230L
g4
(g8
S'\x00\x00\x00\x00\x00\x00\x00\x00'
p564
tp565
Rp566
sL326L
g4
(g8
S'\x1f\xea\xb1\xe4\xb5\xa8\x84?'
p567
tp568
Rp569
sL296L
g4
(g8
S'.q@\x96\xec\xb2\xd7?'
p570
tp571
Rp572
sL425L
g4
(g8
S'\x10\x01\xdeD\xecr\xed?'
p573
tp574
Rp575
sL171L
g4
(g8
S'M).Y\xa6q\xe7?'
p576
tp577
Rp578
sL456L
g4
(g8
S'\x00\x00\x00\x00\x00\x00\x00\x00'
p579
tp580
Rp581
sL310L
g4
(g8
S'\xa1\xcd\xdba\xbb\x01\xee?'
p582
tp583
Rp584
sL446L
g4
(g8
S'\xcc\x10\xeb\x87B\xc7\xee?'
p585
tp586
Rp587
sasI3
g423
sI4
g423
sI5
g423
sI6
g423
sI7
g423
sI8
g423
sI9
g423
sI10
g423
sI11
g423
sI12
g423
sI13
g423
sI14
g423
sI15
g423
sI16
g423
sI17
g423
sI18
g120
sI19
g157
sI20
g194
sI21
g505
sI22
g268
sI23
g268
ssI32
(dp588
I0
g2
sI1
g46
sI2
g83
sI3
g423
sI4
g423
sI5
g423
sI6
g423
sI7
g423
sI8
g423
sI9
g423
sI10
g423
sI11
g423
sI12
g423
sI13
g423
sI14
g423
sI15
g423
sI16
g423
sI17
g423
sI18
g423
sI19
g423
sI20
g120
sI21
g157
sI22
g194
sI23
g505
sI24
g268
sI25
g268
ssI33
(dp589
I0
g2
sI1
g46
sI2
g83
sI3
g423
sI4
g423
sI5
g423
sI6
g423
sI7
g423
sI8
g423
sI9
g423
sI10
g423
sI11
g423
sI12
g423
sI13
g423
sI14
g423
sI15
g423
sI16
g423
sI17
g423
sI18
g423
sI19
g423
sI20
g423
sI21
g120
sI22
g157
sI23
g194
sI24
g505
sI25
g268
sI26
g268
ssI34
(dp590
I0
g2
sI1
g46
sI2
g83
sI3
g423
sI4
g423
sI5
g423
sI6
g423
sI7
g423
sI8
g423
sI9
g423
sI10
g423
sI11
g423
sI12
g423
sI13
g423
sI14
g423
sI15
g423
sI16
g423
sI17
g423
sI18
g423
sI19
g423
sI20
g423
sI21
g423
sI22
g120
sI23
g157
sI24
g194
sI25
g505
sI26
g268
sI27
g268
ssI35
(dp591
I0
g2
sI1
g46
sI2
g83
sI3
g423
sI4
g423
sI5
g423
sI6
g423
sI7
g423
sI8
g423
sI9
g423
sI10
g423
sI11
g423
sI12
g423
sI13
g423
sI14
g423
sI15
g423
sI16
g423
sI17
g423
sI18
g423
sI19
g423
sI20
g423
sI21
g423
sI22
g423
sI23
g120
sI24
g157
sI25
g194
sI26
g505
sI27
g268
sI28
g268
ssI36
(dp592
I0
g2
sI1
g46
sI2
g83
sI3
g423
sI4
g423
sI5
g423
sI6
g423
sI7
g423
sI8
g423
sI9
g423
sI10
g423
sI11
g423
sI12
g423
sI13
g423
sI14
g423
sI15
g423
sI16
g423
sI17
g423
sI18
g423
sI19
g423
sI20
g423
sI21
g423
sI22
g423
sI23
g423
sI24
g120
sI25
g157
sI26
g194
sI27
g505
sI28
g268
sI29
g268
ssI37
(dp593
I0
g2
sI1
g46
sI2
g83
sI3
g423
sI4
g423
sI5
g423
sI6
g423
sI7
g423
sI8
g423
sI9
g423
sI10
g423
sI11
g423
sI12
g423
sI13
g423
sI14
g423
sI15
g423
sI16
g423
sI17
g423
sI18
g423
sI19
g423
sI20
g423
sI21
g423
sI22
g423
sI23
g423
sI24
g423
sI25
g120
sI26
g157
sI27
g194
sI28
g505
sI29
g268
sI30
g268
ssI38
(dp594
I0
g2
sI1
g46
sI2
g83
sI3
g423
sI4
g423
sI5
g423
sI6
g423
sI7
g423
sI8
g423
sI9
g423
sI10
g423
sI11
g423
sI12
g423
sI13
g423
sI14
g423
sI15
g423
sI16
g423
sI17
g423
sI18
g423
sI19
g423
sI20
g423
sI21
g423
sI22
g423
sI23
g423
sI24
g423
sI25
g423
sI26
g120
sI27
g157
sI28
g194
sI29
g505
sI30
g268
sI31
g268
ssI39
(dp595
I0
g2
sI1
g46
sI2
g83
sI3
g423
sI4
g423
sI5
g423
sI6
g423
sI7
g423
sI8
g423
sI9
g423
sI10
g423
sI11
g423
sI12
g423
sI13
g423
sI14
g423
sI15
g423
sI16
g423
sI17
g423
sI18
g423
sI19
g423
sI20
g423
sI21
g423
sI22
g423
sI23
g423
sI24
g423
sI25
g423
sI26
g423
sI27
g120
sI28
g157
sI29
g194
sI30
g505
sI31
g268
sI32
g268
ssI40
(dp596
I0
g2
sI1
g46
sI2
g83
sI3
g423
sI4
g423
sI5
g423
sI6
g423
sI7
g423
sI8
g423
sI9
g423
sI10
g423
sI11
g423
sI12
g423
sI13
g423
sI14
g423
sI15
g423
sI16
g423
sI17
g423
sI18
g423
sI19
g423
sI20
g423
sI21
g423
sI22
g423
sI23
g423
sI24
g423
sI25
g423
sI26
g423
sI27
g423
sI28
g120
sI29
g157
sI30
g194
sI31
g505
sI32
g268
sI33
g268
ssI41
(dp597
I0
g2
sI1
g46
sI2
g83
sI3
g423
sI4
g423
sI5
g423
sI6
g423
sI7
g423
sI8
g423
sI9
g423
sI10
g423
sI11
g423
sI12
g423
sI13
g423
sI14
g423
sI15
g423
sI16
g423
sI17
g423
sI18
g423
sI19
g423
sI20
g423
sI21
g423
sI22
g423
sI23
g423
sI24
g423
sI25
g423
sI26
g423
sI27
g423
sI28
g423
sI29
g120
sI30
g157
sI31
g194
sI32
g505
sI33
g268
sI34
g268
ssI42
(dp598
I0
g2
sI1
g46
sI2
g83
sI3
g423
sI4
g423
sI5
g423
sI6
g423
sI7
g423
sI8
g423
sI9
g423
sI10
g423
sI11
g423
sI12
g423
sI13
g423
sI14
g423
sI15
g423
sI16
g423
sI17
g423
sI18
g423
sI19
g423
sI20
g423
sI21
g423
sI22
g423
sI23
g423
sI24
g423
sI25
g423
sI26
g423
sI27
g423
sI28
g423
sI29
g423
sI30
g120
sI31
g157
sI32
g194
sI33
g505
sI34
g268
sI35
g268
ssI43
(dp599
I0
g2
sI1
g46
sI2
g83
sI3
g423
sI4
g423
sI5
g423
sI6
g423
sI7
g423
sI8
g423
sI9
g423
sI10
g423
sI11
g423
sI12
g423
sI13
g423
sI14
g423
sI15
g423
sI16
g423
sI17
g423
sI18
g423
sI19
g423
sI20
g423
sI21
g423
sI22
g423
sI23
g423
sI24
g423
sI25
g423
sI26
g423
sI27
g423
sI28
g423
sI29
g423
sI30
g423
sI31
g120
sI32
g157
sI33
g194
sI34
g505
sI35
g268
sI36
g268
ssI44
(dp600
I0
g2
sI1
g46
sI2
g83
sI3
g423
sI4
g423
sI5
g423
sI6
g423
sI7
g423
sI8
g423
sI9
g423
sI10
g423
sI11
g423
sI12
g423
sI13
g423
sI14
g423
sI15
g423
sI16
g423
sI17
g423
sI18
g423
sI19
g423
sI20
g423
sI21
g423
sI22
g423
sI23
g423
sI24
g423
sI25
g423
sI26
g423
sI27
g423
sI28
g423
sI29
g423
sI30
g423
sI31
g423
sI32
g120
sI33
g157
sI34
g194
sI35
g505
sI36
g268
sI37
g268
ssI45
(dp601
I0
g2
sI1
g46
sI2
g83
sI3
g423
sI4
g423
sI5
g423
sI6
g423
sI7
g423
sI8
g423
sI9
g423
sI10
g423
sI11
g423
sI12
g423
sI13
g423
sI14
g423
sI15
g423
sI16
g423
sI17
g423
sI18
g423
sI19
g423
sI20
g423
sI21
g423
sI22
g423
sI23
g423
sI24
g423
sI25
g423
sI26
g423
sI27
g423
sI28
g423
sI29
g423
sI30
g423
sI31
g423
sI32
g423
sI33
g120
sI34
g157
sI35
g194
sI36
g505
sI37
g268
sI38
g268
ssI46
(dp602
I0
g2
sI1
g46
sI2
g83
sI3
g423
sI4
g423
sI5
g423
sI6
g423
sI7
g423
sI8
g423
sI9
g423
sI10
g423
sI11
g423
sI12
g423
sI13
g423
sI14
g423
sI15
g423
sI16
g423
sI17
g423
sI18
g423
sI19
g423
sI20
g423
sI21
g423
sI22
g423
sI23
g423
sI24
g423
sI25
g423
sI26
g423
sI27
g423
sI28
g423
sI29
g423
sI30
g423
sI31
g423
sI32
g423
sI33
g423
sI34
g120
sI35
g157
sI36
g194
sI37
g505
sI38
g268
sI39
g268
ssI47
(dp603
I0
g2
sI1
g46
sI2
g83
sI3
g423
sI4
g423
sI5
g423
sI6
g423
sI7
g423
sI8
g423
sI9
g423
sI10
g423
sI11
g423
sI12
g423
sI13
g423
sI14
g423
sI15
g423
sI16
g423
sI17
g423
sI18
g423
sI19
g423
sI20
g423
sI21
g423
sI22
g423
sI23
g423
sI24
g423
sI25
g423
sI26
g423
sI27
g423
sI28
g423
sI29
g423
sI30
g423
sI31
g423
sI32
g423
sI33
g423
sI34
g423
sI35
g120
sI36
g157
sI37
g194
sI38
g505
sI39
g268
sI40
g268
ssI48
(dp604
I0
g2
sI1
g46
sI2
g83
sI3
g423
sI4
g423
sI5
g423
sI6
g423
sI7
g423
sI8
g423
sI9
g423
sI10
g423
sI11
g423
sI12
g423
sI13
g423
sI14
g423
sI15
g423
sI16
g423
sI17
g423
sI18
g423
sI19
g423
sI20
g423
sI21
g423
sI22
g423
sI23
g423
sI24
g423
sI25
g423
sI26
g423
sI27
g423
sI28
g423
sI29
g423
sI30
g423
sI31
g423
sI32
g423
sI33
g423
sI34
g423
sI35
g423
sI36
g120
sI37
g157
sI38
g194
sI39
g505
sI40
g268
sI41
g268
ssI49
(dp605
I0
g2
sI1
g46
sI2
g83
sI3
g423
sI4
g423
sI5
g423
sI6
g423
sI7
g423
sI8
g423
sI9
g423
sI10
g423
sI11
g423
sI12
g423
sI13
g423
sI14
g423
sI15
g423
sI16
g423
sI17
g423
sI18
g423
sI19
g423
sI20
g423
sI21
g423
sI22
g423
sI23
g423
sI24
g423
sI25
g423
sI26
g423
sI27
g423
sI28
g423
sI29
g423
sI30
g423
sI31
g423
sI32
g423
sI33
g423
sI34
g423
sI35
g423
sI36
g423
sI37
g120
sI38
g157
sI39
g194
sI40
g505
sI41
g268
sI42
g268
ssI50
(dp606
I0
g2
sI1
g46
sI2
g83
sI3
g423
sI4
g423
sI5
g423
sI6
g423
sI7
g423
sI8
g423
sI9
g423
sI10
g423
sI11
g423
sI12
g423
sI13
g423
sI14
g423
sI15
g423
sI16
g423
sI17
g423
sI18
g423
sI19
g423
sI20
g423
sI21
g423
sI22
g423
sI23
g423
sI24
g423
sI25
g423
sI26
g423
sI27
g423
sI28
g423
sI29
g423
sI30
g423
sI31
g423
sI32
g423
sI33
g423
sI34
g423
sI35
g423
sI36
g423
sI37
g423
sI38
g120
sI39
g157
sI40
g194
sI41
g505
sI42
g268
sI43
g268
ssI51
(dp607
I0
g2
sI1
g46
sI2
g83
sI3
g423
sI4
g423
sI5
g423
sI6
g423
sI7
g423
sI8
g423
sI9
g423
sI10
g423
sI11
g423
sI12
g423
sI13
g423
sI14
g423
sI15
g423
sI16
g423
sI17
g423
sI18
g423
sI19
g423
sI20
g423
sI21
g423
sI22
g423
sI23
g423
sI24
g423
sI25
g423
sI26
g423
sI27
g423
sI28
g423
sI29
g423
sI30
g423
sI31
g423
sI32
g423
sI33
g423
sI34
g423
sI35
g423
sI36
g423
sI37
g423
sI38
g423
sI39
g120
sI40
g157
sI41
g194
sI42
g505
sI43
g268
sI44
g268
ssI52
(dp608
I0
g2
sI1
g46
sI2
g83
sI3
g423
sI4
g423
sI5
g423
sI6
g423
sI7
g423
sI8
g423
sI9
g423
sI10
g423
sI11
g423
sI12
g423
sI13
g423
sI14
g423
sI15
g423
sI16
g423
sI17
g423
sI18
g423
sI19
g423
sI20
g423
sI21
g423
sI22
g423
sI23
g423
sI24
g423
sI25
g423
sI26
g423
sI27
g423
sI28
g423
sI29
g423
sI30
g423
sI31
g423
sI32
g423
sI33
g423
sI34
g423
sI35
g423
sI36
g423
sI37
g423
sI38
g423
sI39
g423
sI40
g120
sI41
g157
sI42
g194
sI43
g505
sI44
g268
sI45
g268
ssI53
(dp609
I0
g2
sI1
g46
sI2
g83
sI3
g423
sI4
g423
sI5
g423
sI6
g423
sI7
g423
sI8
g423
sI9
g423
sI10
g423
sI11
g423
sI12
g423
sI13
g423
sI14
g423
sI15
g423
sI16
g423
sI17
g423
sI18
g423
sI19
g423
sI20
g423
sI21
g423
sI22
g423
sI23
g423
sI24
g423
sI25
g423
sI26
g423
sI27
g423
sI28
g423
sI29
g423
sI30
g423
sI31
g423
sI32
g423
sI33
g423
sI34
g423
sI35
g423
sI36
g423
sI37
g423
sI38
g423
sI39
g423
sI40
g423
sI41
g120
sI42
g157
sI43
g194
sI44
g505
sI45
g268
sI46
g268
ssI54
(dp610
I0
g2
sI1
g46
sI2
g83
sI3
g423
sI4
g423
sI5
g423
sI6
g423
sI7
g423
sI8
g423
sI9
g423
sI10
g423
sI11
g423
sI12
g423
sI13
g423
sI14
g423
sI15
g423
sI16
g423
sI17
g423
sI18
g423
sI19
g423
sI20
g423
sI21
g423
sI22
g423
sI23
g423
sI24
g423
sI25
g423
sI26
g423
sI27
g423
sI28
g423
sI29
g423
sI30
g423
sI31
g423
sI32
g423
sI33
g423
sI34
g423
sI35
g423
sI36
g423
sI37
g423
sI38
g423
sI39
g423
sI40
g423
sI41
g423
sI42
g120
sI43
g157
sI44
g194
sI45
g505
sI46
g268
sI47
g268
ssI55
(dp611
I0
g2
sI1
g46
sI2
g83
sI3
g423
sI4
g423
sI5
g423
sI6
g423
sI7
g423
sI8
g423
sI9
g423
sI10
g423
sI11
g423
sI12
g423
sI13
g423
sI14
g423
sI15
g423
sI16
g423
sI17
g423
sI18
g423
sI19
g423
sI20
g423
sI21
g423
sI22
g423
sI23
g423
sI24
g423
sI25
g423
sI26
g423
sI27
g423
sI28
g423
sI29
g423
sI30
g423
sI31
g423
sI32
g423
sI33
g423
sI34
g423
sI35
g423
sI36
g423
sI37
g423
sI38
g423
sI39
g423
sI40
g423
sI41
g423
sI42
g423
sI43
g120
sI44
g157
sI45
g194
sI46
g505
sI47
g268
sI48
g268
ssI56
(dp612
I0
g2
sI1
g46
sI2
g83
sI3
g423
sI4
g423
sI5
g423
sI6
g423
sI7
g423
sI8
g423
sI9
g423
sI10
g423
sI11
g423
sI12
g423
sI13
g423
sI14
g423
sI15
g423
sI16
g423
sI17
g423
sI18
g423
sI19
g423
sI20
g423
sI21
g423
sI22
g423
sI23
g423
sI24
g423
sI25
g423
sI26
g423
sI27
g423
sI28
g423
sI29
g423
sI30
g423
sI31
g423
sI32
g423
sI33
g423
sI34
g423
sI35
g423
sI36
g423
sI37
g423
sI38
g423
sI39
g423
sI40
g423
sI41
g423
sI42
g423
sI43
g423
sI44
g120
sI45
g157
sI46
g194
sI47
g505
sI48
g268
sI49
g268
ssI57
(dp613
I0
g2
sI1
g46
sI2
g83
sI3
g423
sI4
g423
sI5
g423
sI6
g423
sI7
g423
sI8
g423
sI9
g423
sI10
g423
sI11
g423
sI12
g423
sI13
g423
sI14
g423
sI15
g423
sI16
g423
sI17
g423
sI18
g423
sI19
g423
sI20
g423
sI21
g423
sI22
g423
sI23
g423
sI24
g423
sI25
g423
sI26
g423
sI27
g423
sI28
g423
sI29
g423
sI30
g423
sI31
g423
sI32
g423
sI33
g423
sI34
g423
sI35
g423
sI36
g423
sI37
g423
sI38
g423
sI39
g423
sI40
g423
sI41
g423
sI42
g423
sI43
g423
sI44
g423
sI45
g120
sI46
g157
sI47
g194
sI48
g505
sI49
g268
sI50
g268
ssI58
(dp614
I0
g2
sI1
g46
sI2
g83
sI3
g423
sI4
g423
sI5
g423
sI6
g423
sI7
g423
sI8
g423
sI9
g423
sI10
g423
sI11
g423
sI12
g423
sI13
g423
sI14
g423
sI15
g423
sI16
g423
sI17
g423
sI18
g423
sI19
g423
sI20
g423
sI21
g423
sI22
g423
sI23
g423
sI24
g423
sI25
g423
sI26
g423
sI27
g423
sI28
g423
sI29
g423
sI30
g423
sI31
g423
sI32
g423
sI33
g423
sI34
g423
sI35
g423
sI36
g423
sI37
g423
sI38
g423
sI39
g423
sI40
g423
sI41
g423
sI42
g423
sI43
g423
sI44
g423
sI45
g423
sI46
g120
sI47
g157
sI48
g194
sI49
g505
sI50
g268
sI51
g268
ssI59
(dp615
I0
g2
sI1
g46
sI2
g83
sI3
g423
sI4
g423
sI5
g423
sI6
g423
sI7
g423
sI8
g423
sI9
g423
sI10
g423
sI11
g423
sI12
g423
sI13
g423
sI14
g423
sI15
g423
sI16
g423
sI17
g423
sI18
g423
sI19
g423
sI20
g423
sI21
g423
sI22
g423
sI23
g423
sI24
g423
sI25
g423
sI26
g423
sI27
g423
sI28
g423
sI29
g423
sI30
g423
sI31
g423
sI32
g423
sI33
g423
sI34
g423
sI35
g423
sI36
g423
sI37
g423
sI38
g423
sI39
g423
sI40
g423
sI41
g423
sI42
g423
sI43
g423
sI44
g423
sI45
g423
sI46
g423
sI47
g120
sI48
g157
sI49
g194
sI50
g505
sI51
g268
sI52
g268
ssI60
(dp616
I0
g2
sI1
g46
sI2
g83
sI3
g423
sI4
g423
sI5
g423
sI6
g423
sI7
g423
sI8
g423
sI9
g423
sI10
g423
sI11
g423
sI12
g423
sI13
g423
sI14
g423
sI15
g423
sI16
g423
sI17
g423
sI18
g423
sI19
g423
sI20
g423
sI21
g423
sI22
g423
sI23
g423
sI24
g423
sI25
g423
sI26
g423
sI27
g423
sI28
g423
sI29
g423
sI30
g423
sI31
g423
sI32
g423
sI33
g423
sI34
g423
sI35
g423
sI36
g423
sI37
g423
sI38
g423
sI39
g423
sI40
g423
sI41
g423
sI42
g423
sI43
g423
sI44
g423
sI45
g423
sI46
g423
sI47
g423
sI48
g120
sI49
g157
sI50
g194
sI51
g505
sI52
g268
sI53
g268
ssI61
(dp617
I0
g2
sI1
g46
sI2
g83
sI3
g423
sI4
g423
sI5
g423
sI6
g423
sI7
g423
sI8
g423
sI9
g423
sI10
g423
sI11
g423
sI12
g423
sI13
g423
sI14
g423
sI15
g423
sI16
g423
sI17
g423
sI18
g423
sI19
g423
sI20
g423
sI21
g423
sI22
g423
sI23
g423
sI24
(lp618
g121
aL67L
ag4
(g8
S'7\x9cg\n~L\xaa@'
p619
tp620
Rp621
a(dp622
L331L
F0.0
sL164L
F0.8091199146348065
sL230L
F0.0
sL326L
F1.4229662218615575
sL296L
F0.8773607836127666
sL425L
F0.6888781138227583
sL171L
F0.9708722120950513
sL456L
F0.0
sL310L
F0.9584524506398254
sL446L
F1.432440944561462
sa(dp623
L171L
g4
(g8
S'6\x95=\xac]\x17\xeb?'
p624
tp625
Rp626
sL164L
g4
(g8
S'\xc5&\xdc\xcc\x8b\xc0\xe9?'
p627
tp628
Rp629
sL230L
g4
(g8
S'\x00\x00\x00\x00\x00\x00\x00\x00'
p630
tp631
Rp632
sL326L
g4
(g8
S'\xad\xff\xbb\xf5S\xec\xeb?'
p633
tp634
Rp635
sL296L
g4
(g8
S'\x0f\xbc\xca\x18\x1d{\xea?'
p636
tp637
Rp638
sL425L
g4
(g8
S'\x95\xcd\xc2\x08\xb0]\xe7?'
p639
tp640
Rp641
sL331L
g4
(g8
S'\x00\x00\x00\x00\x00\x00\x00\x00'
p642
tp643
Rp644
sL456L
g4
(g8
S'\x00\x00\x00\x00\x00\x00\x00\x00'
p645
tp646
Rp647
sL310L
g4
(g8
S'(]\xde\xfcG\x07\xeb?'
p648
tp649
Rp650
sL446L
g4
(g8
S'\x16\xaa\x15:\x92\xed\xeb?'
p651
tp652
Rp653
sasI25
g423
sI26
g423
sI27
g423
sI28
g423
sI29
g423
sI30
g423
sI31
g423
sI32
g423
sI33
g423
sI34
g423
sI35
g423
sI36
g423
sI37
g423
sI38
g423
sI39
g423
sI40
g423
sI41
g423
sI42
g423
sI43
g423
sI44
g423
sI45
g423
sI46
g423
sI47
g120
sI48
g157
sI49
g194
sI50
g505
sI51
g268
sI52
g268
ssI62
(dp654
I0
g2
sI1
g46
sI2
g83
sI3
g423
sI4
g423
sI5
g423
sI6
g423
sI7
g423
sI8
g423
sI9
g423
sI10
g423
sI11
g423
sI12
g423
sI13
g423
sI14
g423
sI15
g423
sI16
g423
sI17
g423
sI18
g423
sI19
g423
sI20
g423
sI21
g423
sI22
g423
sI23
g423
sI24
g423
sI25
g423
sI26
g423
sI27
g423
sI28
g423
sI29
g423
sI30
g423
sI31
g423
sI32
g423
sI33
g423
sI34
g423
sI35
g423
sI36
g423
sI37
g423
sI38
g423
sI39
g423
sI40
g423
sI41
g423
sI42
g423
sI43
g423
sI44
g423
sI45
g423
sI46
g423
sI47
g423
sI48
g423
sI49
g120
sI50
g157
sI51
g194
sI52
g505
sI53
g268
sI54
g268
ssI63
(dp655
I0
g2
sI1
g46
sI2
g83
sI3
g423
sI4
g423
sI5
g423
sI6
g423
sI7
g423
sI8
g423
sI9
g423
sI10
g423
sI11
g423
sI12
g423
sI13
g423
sI14
g423
sI15
g423
sI16
g423
sI17
g423
sI18
g423
sI19
g423
sI20
g423
sI21
g423
sI22
g423
sI23
g423
sI24
g618
sI25
g423
sI26
g423
sI27
g423
sI28
g423
sI29
g423
sI30
g423
sI31
g423
sI32
g423
sI33
g423
sI34
g423
sI35
g423
sI36
g423
sI37
g423
sI38
g423
sI39
g423
sI40
g423
sI41
g423
sI42
g423
sI43
g423
sI44
g423
sI45
g423
sI46
g423
sI47
g423
sI48
g120
sI49
g157
sI50
g194
sI51
g505
sI52
g268
sI53
g268
ssI64
(dp656
I0
g2
sI1
g46
sI2
g83
sI3
g423
sI4
g423
sI5
g423
sI6
g423
sI7
g423
sI8
g423
sI9
g423
sI10
g423
sI11
g423
sI12
g423
sI13
g423
sI14
g423
sI15
g423
sI16
g423
sI17
g423
sI18
g423
sI19
g423
sI20
g423
sI21
g423
sI22
g423
sI23
g423
sI24
g423
sI25
g423
sI26
g423
sI27
g423
sI28
g423
sI29
g423
sI30
g423
sI31
g423
sI32
g423
sI33
g423
sI34
g423
sI35
g423
sI36
g423
sI37
g423
sI38
g423
sI39
g423
sI40
g423
sI41
g423
sI42
g423
sI43
g423
sI44
g423
sI45
g423
sI46
g423
sI47
g423
sI48
g423
sI49
g423
sI50
g120
sI51
g157
sI52
g194
sI53
g505
sI54
g268
sI55
g268
ssI65
(dp657
I0
g2
sI1
g46
sI2
g83
sI3
g423
sI4
g423
sI5
g423
sI6
g423
sI7
g423
sI8
g423
sI9
g423
sI10
g423
sI11
g423
sI12
g423
sI13
g423
sI14
g423
sI15
g423
sI16
g423
sI17
g423
sI18
g423
sI19
g423
sI20
g423
sI21
g423
sI22
g423
sI23
g423
sI24
g423
sI25
g618
sI26
g423
sI27
g423
sI28
g423
sI29
g423
sI30
g423
sI31
g423
sI32
g423
sI33
g423
sI34
g423
sI35
g423
sI36
g423
sI37
g423
sI38
g423
sI39
g423
sI40
g423
sI41
g423
sI42
g423
sI43
g423
sI44
g423
sI45
g423
sI46
g423
sI47
g423
sI48
g423
sI49
g120
sI50
g157
sI51
g194
sI52
g505
sI53
g268
sI54
g268
ssI66
(dp658
I0
g2
sI1
g46
sI2
g83
sI3
g423
sI4
g423
sI5
g423
sI6
g423
sI7
g423
sI8
g423
sI9
g423
sI10
g423
sI11
g423
sI12
g423
sI13
g423
sI14
g423
sI15
g423
sI16
g423
sI17
g423
sI18
g423
sI19
g423
sI20
g423
sI21
g423
sI22
g423
sI23
g423
sI24
g423
sI25
g423
sI26
g423
sI27
g423
sI28
g423
sI29
g423
sI30
g423
sI31
g423
sI32
g423
sI33
g423
sI34
g423
sI35
g423
sI36
g423
sI37
g423
sI38
g423
sI39
g423
sI40
g423
sI41
g423
sI42
g423
sI43
g423
sI44
g423
sI45
g423
sI46
g423
sI47
g423
sI48
g423
sI49
g423
sI50
g423
sI51
g120
sI52
g157
sI53
g194
sI54
g505
sI55
g268
sI56
g268
ssI67
(dp659
I0
g2
sI1
g46
sI2
g83
sI3
g423
sI4
g423
sI5
g423
sI6
g423
sI7
g423
sI8
g423
sI9
g423
sI10
g423
sI11
g423
sI12
g423
sI13
g423
sI14
g423
sI15
g423
sI16
g423
sI17
g423
sI18
g423
sI19
g423
sI20
g423
sI21
g423
sI22
g423
sI23
g423
sI24
g423
sI25
g618
sI26
g423
sI27
g423
sI28
g423
sI29
g423
sI30
g423
sI31
g423
sI32
g423
sI33
g423
sI34
g423
sI35
g423
sI36
g423
sI37
g423
sI38
g423
sI39
g423
sI40
g423
sI41
g423
sI42
g423
sI43
g423
sI44
g423
sI45
g423
sI46
g423
sI47
g423
sI48
g423
sI49
g423
sI50
g120
sI51
g157
sI52
g194
sI53
g505
sI54
g268
sI55
g268
ssI68
(dp660
I0
g2
sI1
g46
sI2
g83
sI3
g423
sI4
g423
sI5
g423
sI6
g423
sI7
g423
sI8
g423
sI9
g423
sI10
g423
sI11
g423
sI12
g423
sI13
g423
sI14
g423
sI15
g423
sI16
g423
sI17
g423
sI18
g423
sI19
g423
sI20
g423
sI21
g423
sI22
g423
sI23
g423
sI24
g618
sI25
g618
sI26
g423
sI27
g423
sI28
g423
sI29
g423
sI30
g423
sI31
g423
sI32
g423
sI33
g423
sI34
g423
sI35
g423
sI36
g423
sI37
g423
sI38
g423
sI39
g423
sI40
g423
sI41
g423
sI42
g423
sI43
g423
sI44
g423
sI45
g423
sI46
g423
sI47
g423
sI48
g423
sI49
g120
sI50
g157
sI51
g194
sI52
g505
sI53
g268
sI54
g268
ssI69
(dp661
I0
g2
sI1
g46
sI2
g83
sI3
g423
sI4
g423
sI5
g423
sI6
g423
sI7
g423
sI8
g423
sI9
g423
sI10
g423
sI11
g423
sI12
g423
sI13
g423
sI14
g423
sI15
g423
sI16
g423
sI17
g423
sI18
g423
sI19
g423
sI20
g423
sI21
g423
sI22
g423
sI23
g423
sI24
g423
sI25
g618
sI26
g618
sI27
g423
sI28
g423
sI29
g423
sI30
g423
sI31
g423
sI32
g423
sI33
g423
sI34
g423
sI35
g423
sI36
g423
sI37
g423
sI38
g423
sI39
g423
sI40
g423
sI41
g423
sI42
g423
sI43
g423
sI44
g423
sI45
g423
sI46
g423
sI47
g423
sI48
g423
sI49
g423
sI50
g120
sI51
g157
sI52
g194
sI53
g505
sI54
g268
sI55
g268
ssI70
(dp662
I0
g2
sI1
g46
sI2
g83
sI3
g423
sI4
g423
sI5
g423
sI6
g423
sI7
g423
sI8
g423
sI9
g423
sI10
g423
sI11
g423
sI12
g423
sI13
g423
sI14
g423
sI15
g423
sI16
g423
sI17
g423
sI18
g423
sI19
g423
sI20
g423
sI21
g423
sI22
g423
sI23
g423
sI24
g423
sI25
g423
sI26
g618
sI27
g618
sI28
g423
sI29
g423
sI30
g423
sI31
g423
sI32
g423
sI33
g423
sI34
g423
sI35
g423
sI36
g423
sI37
g423
sI38
g423
sI39
g423
sI40
g423
sI41
g423
sI42
g423
sI43
g423
sI44
g423
sI45
g423
sI46
g423
sI47
g423
sI48
g423
sI49
g423
sI50
g423
sI51
g120
sI52
g157
sI53
g194
sI54
g505
sI55
g268
sI56
g268
ssI71
(dp663
I0
g2
sI1
g46
sI2
g83
sI3
g423
sI4
g423
sI5
g423
sI6
g423
sI7
g423
sI8
g423
sI9
g423
sI10
g423
sI11
g423
sI12
g423
sI13
g423
sI14
g423
sI15
g423
sI16
g423
sI17
g423
sI18
g423
sI19
g423
sI20
g423
sI21
g423
sI22
g423
sI23
g423
sI24
g423
sI25
g423
sI26
g618
sI27
g618
sI28
g423
sI29
g423
sI30
g423
sI31
g423
sI32
g423
sI33
g423
sI34
g423
sI35
g423
sI36
g423
sI37
g423
sI38
g423
sI39
g423
sI40
g423
sI41
g423
sI42
g423
sI43
g423
sI44
g423
sI45
g423
sI46
g423
sI47
g423
sI48
g423
sI49
g423
sI50
g423
sI51
g423
sI52
g120
sI53
g157
sI54
g194
sI55
g505
sI56
g268
sI57
g268
ssI72
(dp664
I0
g2
sI1
g46
sI2
g83
sI3
g423
sI4
g423
sI5
g423
sI6
g423
sI7
g423
sI8
g423
sI9
g423
sI10
g423
sI11
g423
sI12
g423
sI13
g423
sI14
g423
sI15
g423
sI16
g423
sI17
g423
sI18
g423
sI19
g423
sI20
g423
sI21
g423
sI22
g423
sI23
g423
sI24
g423
sI25
g423
sI26
g423
sI27
g618
sI28
g618
sI29
g423
sI30
g423
sI31
g423
sI32
g423
sI33
g423
sI34
g423
sI35
g423
sI36
g423
sI37
g423
sI38
g423
sI39
g423
sI40
g423
sI41
g423
sI42
g423
sI43
g423
sI44
g423
sI45
g423
sI46
g423
sI47
g423
sI48
g423
sI49
g423
sI50
g423
sI51
g423
sI52
g423
sI53
g120
sI54
g157
sI55
g194
sI56
g505
sI57
g268
sI58
g268
ss.