(dp0
I0
F0.0
sI1
F0.0
sI2
F0.0
sI3
F0.0
sI4
F0.0
sI5
F0.0
sI6
F0.0
sI7
F0.0
sI8
F0.0
sI9
F0.0
sI10
F0.0
sI11
F0.0
sI12
F0.0
sI13
F0.0
sI14
F0.0
sI15
F0.0
sI16
F0.0
sI17
F0.0
sI18
F0.0
sI19
F0.0
sI20
F0.0
sI21
F0.0
sI22
F0.0
sI23
F0.0
sI24
F0.0
sI25
F0.0
sI26
F0.0
sI27
F0.0
sI28
F0.0
sI29
F0.0
sI30
F0.0
sI31
F0.0
sI32
F0.0
sI33
F0.0
sI34
F0.0
sI35
F0.0
sI36
F0.0
sI37
F0.0
sI38
F0.0
sI39
F0.0
sI40
F0.0
sI41
F0.0
sI42
F0.0
sI43
F0.0
sI44
F0.0
sI45
F0.0
sI46
F0.0
sI47
F0.0
sI48
F0.0
sI49
F0.0
sI50
F0.0
sI51
F0.0
sI52
F0.0
sI53
F0.0
sI54
F0.0
sI55
F0.0
sI56
F0.0
sI57
F0.0
sI58
F0.0
sI59
F0.0
sI60
F0.0
sI61
F0.0
sI62
F0.0
sI63
F0.0
sI64
F0.0
sI65
F0.0
sI66
F0.0
sI67
F0.0
sI68
F0.0
sI69
F0.0
sI70
F0.0
sI71
F0.0
sI72
F0.0
sI73
F0.0
sI74
F0.0
sI75
F0.0
sI76
F0.0
sI77
F0.0
sI78
F0.0
sI79
F0.0
sI80
F0.0
sI81
F0.0
sI82
F0.0
sI83
F0.0
sI84
F0.0
sI85
F0.0
sI86
F0.0
sI87
F0.0
sI88
F0.0
sI89
F0.0
sI90
F0.0
sI91
F0.0
sI92
F0.0
sI93
F0.0
sI94
F0.0
sI95
F0.0
sI96
F0.0
sI97
F0.0
sI98
F5.081338361881823e+25
sI99
F0.0
sI100
F0.0
sI101
F0.0
sI102
F0.0
sI103
F0.0
sI104
F0.0
sI105
F0.0
sI106
F8.589072121751593e+27
sI107
F4.985209010391937e+34
sI108
F2.2094883917434673e+36
sI109
F1.225510180057328e+37
sI110
F3.023702410979926e+37
sI111
F4.150961099929177e+41
sI112
F8.055462858225143e+42
sI113
F1.0089367708153546e+42
sI114
F4.317386184221541e+41
sI115
F7.847601763599647e+49
sI116
F6.483080537504376e+52
sI117
F2.750129589460234e+53
sI118
F7.743673262963877e+53
sI119
F2.4332168758153877e+52
sI120
F4.982753418444682e+51
sI121
F9.262307683456513e+56
sI122
F1.7231063457022826e+55
sI123
F3.5557558389861486e+53
sI124
F7.771553242454002e+58
sI125
F1.2682174055096552e+57
sI126
F3.527375112504126e+55
sI127
F1.1056868221996033e+56
sI128
F7.071845207295996e+55
sI129
F4.32619910881159e+56
sI130
F1.621682850565001e+56
sI131
F7.659093008037504e+57
sI132
F4.973047165273474e+57
sI133
F7.643430090092896e+55
sI134
F9.46116439664124e+55
sI135
F9.808686919175466e+55
sI136
F9.124178896331692e+56
sI137
F3.760513212854918e+58
sI138
F1.4968491297921874e+57
sI139
F3.811128538661286e+57
sI140
F4.802584107903697e+57
sI141
F8.019904375415348e+56
sI142
F3.411675978437429e+55
sI143
F1.9294303466338452e+56
sI144
F7.674319740641526e+54
sI145
F5.162435833588879e+54
sI146
F4.836924991252894e+53
sI147
F8.855922406934344e+52
sI148
F1.031759169177026e+52
sI149
F8.217880104604996e+51
sI150
F7.34557962365061e+49
sI151
F6.128542324956258e+49
sI152
F2.3037952249059522e+49
sI153
F1.657640588808138e+49
sI154
F1.4325029327025703e+49
sI155
F9.060798784014628e+48
sI156
F5.084948162862831e+46
sI157
F1.405916821457688e+46
sI158
F5.150036150006856e+46
sI159
F1.3600155303191757e+46
sI160
F4.259187326780331e+45
sI161
F4.619103614427819e+43
sI162
F1.530057722997769e+44
sI163
F7.17214676660664e+40
sI164
F5.05399047343143e+40
sI165
F6.654915720692387e+41
sI166
F2.6929515610095214e+40
sI167
F1.1336348620222309e+38
sI168
F6.757262571392553e+36
sI169
F1.252467691365197e+37
sI170
F5.614861738637781e+33
sI171
F9.93577603927918e+32
sI172
F1.6932270257628192e+33
sI173
F5.87357447596856e+31
sI174
F5.019174455252823e+29
sI175
F9.024427647334148e+25
sI176
F1.083117842826438e+26
sI177
F4.458702711681933e+22
sI178
F1.4398166232495047e+20
sI179
F2.1443934134682985e+18
sI180
F2.2934616057349266e+18
sI181
F1027285322371134.9
sI182
F6416138728714.324
sI183
F119285753622.62344
sI184
F6416725802.047185
sI185
F13123984.852261899
sI186
F802.4414537624176
sI187
F520.0658747826886
sI188
F35.83775296075062
sI189
F23.066106255471517
s.