(dp0
I0
F0.0
sI1
F0.0
sI2
F0.0
sI3
F0.0
sI4
F0.0
sI5
F0.0
sI6
F0.0
sI7
F0.0
sI8
F0.0
sI9
F0.0
sI10
F0.0
sI11
F0.0
sI12
F0.0
sI13
F0.0
sI14
F0.0
sI15
F0.0
sI16
F0.0
sI17
F0.0
sI18
F0.0
sI19
F0.0
sI20
F0.0
sI21
F0.0
sI22
F0.0
sI23
F0.0
sI24
F0.0
sI25
F0.0
sI26
F0.0
sI27
F0.0
sI28
F0.0
sI29
F0.0
sI30
F0.0
sI31
F0.0
sI32
F0.0
sI33
F0.0
sI34
F0.0
sI35
F0.0
sI36
F0.0
sI37
F0.0
sI38
F0.0
sI39
F0.0
sI40
F0.0
sI41
F0.0
sI42
F0.0
sI43
F0.0
sI44
F0.0
sI45
F0.0
sI46
F0.0
sI47
F0.0
sI48
F0.0
sI49
F0.0
sI50
F0.0
sI51
F0.0
sI52
F0.0
sI53
F0.0
sI54
F0.0
sI55
F0.0
sI56
F0.0
sI57
F0.0
sI58
F0.0
sI59
F0.0
sI60
F0.0
sI61
F0.0
sI62
F0.0
sI63
F0.0
sI64
F0.0
sI65
F0.0
sI66
F0.0
sI67
F0.0
sI68
F0.0
sI69
F0.0
sI70
F0.0
sI71
F0.0
sI72
F0.0
sI73
F0.0
sI74
F0.0
sI75
F0.0
sI76
F0.0
sI77
F0.0
sI78
F0.0
sI79
F0.0
sI80
F0.0
sI81
F0.0
sI82
F0.0
sI83
F0.0
sI84
F0.0
sI85
F0.0
sI86
F0.0
sI87
F0.0
sI88
F0.0
sI89
F0.0
sI90
F0.0
sI91
F0.0
sI92
F0.0
sI93
F0.0
sI94
F0.0
sI95
F0.0
sI96
F0.0
sI97
F0.0
sI98
F0.0
sI99
F0.0
sI100
F0.0
sI101
F0.0
sI102
F0.0
sI103
F0.0
sI104
F0.0
sI105
F0.0
sI106
F0.0
sI107
F0.0
sI108
F0.0
sI109
F0.0
sI110
F0.0
sI111
F0.0
sI112
F0.0
sI113
F0.0
sI114
F0.0
sI115
F0.0
sI116
F0.0
sI117
F0.0
sI118
F0.0
sI119
F0.0
sI120
F0.0
sI121
F0.0
sI122
F0.0
sI123
F0.0
sI124
F0.0
sI125
F0.0
sI126
F0.0
sI127
F0.0
sI128
F0.0
sI129
F0.0
sI130
F0.0
sI131
F0.0
sI132
F0.0
sI133
F0.0
sI134
F0.0
sI135
F0.0
sI136
F0.0
sI137
F0.0
sI138
F0.0
sI139
F0.0
sI140
F0.0
sI141
F0.0
sI142
F0.0
sI143
F0.0
sI144
F0.0
sI145
F0.0
sI146
F0.0
sI147
F0.0
sI148
F0.0
sI149
F0.0
sI150
F0.0
sI151
F0.0
sI152
F0.0
sI153
F0.0
sI154
F0.0
sI155
F0.0
sI156
F0.0
sI157
F0.0
sI158
F0.0
sI159
F0.0
sI160
F0.0
sI161
F0.0
sI162
F0.0
sI163
F0.0
sI164
F0.0
sI165
F0.0
sI166
F0.0
sI167
F0.0
sI168
F0.0
sI169
F0.0
sI170
F0.0
sI171
F0.0
sI172
F0.0
sI173
F0.0
sI174
F0.0
sI175
F0.0
sI176
F0.0
sI177
F46783958194.966095
sI178
F0.0
sI179
F0.0
sI180
F4.138497160700623e+44
sI181
F0.0
sI182
F0.0
sI183
F0.0
sI184
F0.0
sI185
F0.0
sI186
F0.0
sI187
F0.0
sI188
F0.0
sI189
F0.0
sI190
F0.0
sI191
F0.0
sI192
F0.0
sI193
F0.0
sI194
F0.0
sI195
F0.0
sI196
F0.0
sI197
F0.0
sI198
F0.0
sI199
F0.0
sI200
F0.0
sI201
F0.0
sI202
F0.0
sI203
F0.0
sI204
F0.0
sI205
F0.0
sI206
F0.0
sI207
F0.0
sI208
F1.2925019896955094e+43
sI209
F7.653860185844116e+47
sI210
F1.2158681402165105e+46
sI211
F4.5943227812147085e+61
sI212
F1.2855031904458482e+58
sI213
F3.1405288830083826e+58
sI214
F9.932634940826262e+61
sI215
F2.1756287371780945e+63
sI216
F4.222139813152192e+65
sI217
F2.409929478129236e+64
sI218
F7.484691581653079e+62
sI219
F2.6871676349374496e+62
sI220
F2.461905665224571e+65
sI221
F6.926598744514886e+65
sI222
F6.978206608484071e+62
sI223
F7.725128057061136e+63
sI224
F8.641263171151399e+63
sI225
F5.019472236775951e+65
sI226
F5.912850153762223e+65
sI227
F8.264433588072913e+65
sI228
F1.4214545537762907e+69
sI229
F1.8139500326329284e+67
sI230
F1.296960218323959e+67
sI231
F4.3985088642992015e+66
sI232
F1.773855115282806e+66
sI233
F2.92574225304058e+67
sI234
F4.878747863168269e+66
sI235
F1.979906003307899e+69
sI236
F2.493843617725767e+66
sI237
F2.3235877024073763e+66
sI238
F3.586424099510797e+66
sI239
F2.0949827582917006e+64
sI240
F2.4692184922937947e+64
sI241
F2.7191261443505205e+65
sI242
F1.7465379272344506e+65
sI243
F4.968359523068579e+64
sI244
F7.973976275661581e+61
sI245
F1.2735284698469483e+62
sI246
F1.5850285188253284e+62
sI247
F1.7616949301171464e+62
sI248
F1.7657715552129235e+61
sI249
F4.85065551007507e+59
sI250
F9.774648769404738e+58
sI251
F1.1074639305776137e+59
sI252
F8.729957259645117e+58
sI253
F3.712117870413087e+57
sI254
F5.8182481733082e+56
sI255
F2.8358600319781965e+55
sI256
F2.1168989603490285e+56
sI257
F3.397676781507238e+52
sI258
F1.87042679629186e+52
sI259
F2.779060976283202e+52
sI260
F1.7038658762095002e+50
sI261
F2.6322279267812365e+49
sI262
F1.6597642269900007e+48
sI263
F1.995222615699627e+47
sI264
F3.8935548786395956e+44
sI265
F1.741203897208356e+44
sI266
F5.850375245167575e+42
sI267
F7.471102191970459e+41
sI268
F4.479660417052798e+41
sI269
F3.565545504212994e+40
sI270
F9.464483440775636e+38
sI271
F2.924702645491068e+34
sI272
F2.1420490710521687e+34
sI273
F3.565416594123314e+34
sI274
F5.960511625063155e+32
sI275
F2.850139347862235e+30
sI276
F5.70364454590085e+29
sI277
F7.233717007596558e+28
sI278
F2.167613831689074e+27
sI279
F1.078141855211734e+27
sI280
F4.734697369264268e+25
sI281
F7.015458783562449e+24
sI282
F1.8368986473174356e+24
sI283
F9.176666991611758e+19
sI284
F4.755293318994923e+19
sI285
F3.296230328264033e+18
sI286
F2.640847607701027e+16
sI287
F1.228370945882778e+16
sI288
F708675949981619.0
sI289
F581820663560065.5
sI290
F13119546739778.965
sI291
F2988067502560.9478
sI292
F386723064793.355
sI293
F269908559665.25217
sI294
F77913746729.69228
sI295
F80918147991.24771
sI296
F16189020224.935104
sI297
F4655966198.112728
sI298
F295382165.3299587
sI299
F4290609.555137042
sI300
F3178902.1891809674
sI301
F29742.892436107846
sI302
F12766.76480202212
sI303
F1568.7112660312853
sI304
F8.733141468297415
s.