(dp0
I0
F0.0
sI1
F0.0
sI2
F0.0
sI3
F0.0
sI4
F0.0
sI5
F5521810.1351772575
sI6
F0.0
sI7
F0.0
sI8
F0.0
sI9
F0.0
sI10
F0.0
sI11
F0.0
sI12
F0.0
sI13
F0.0
sI14
F0.0
sI15
F0.0
sI16
F0.0
sI17
F0.0
sI18
F0.0
sI19
F0.0
sI20
F0.0
sI21
F0.0
sI22
F0.0
sI23
F0.0
sI24
F0.0
sI25
F0.0
sI26
F0.0
sI27
F0.0
sI28
F0.0
sI29
F0.0
sI30
F0.0
sI31
F0.0
sI32
F0.0
sI33
F0.0
sI34
F0.0
sI35
F0.0
sI36
F0.0
sI37
F0.0
sI38
F0.0
sI39
F0.0
sI40
F0.0
sI41
F0.0
sI42
F0.0
sI43
F0.0
sI44
F0.0
sI45
F0.0
sI46
F0.0
sI47
F0.0
sI48
F0.0
sI49
F0.0
sI50
F0.0
sI51
F0.0
sI52
F0.0
sI53
F0.0
sI54
F0.0
sI55
F0.0
sI56
F0.0
sI57
F0.0
sI58
F0.0
sI59
F0.0
sI60
F0.0
sI61
F0.0
sI62
F0.0
sI63
F0.0
sI64
F0.0
sI65
F0.0
sI66
F0.0
sI67
F0.0
sI68
F0.0
sI69
F0.0
sI70
F0.0
sI71
F0.0
sI72
F0.0
sI73
F0.0
sI74
F0.0
sI75
F0.0
sI76
F0.0
sI77
F0.0
sI78
F0.0
sI79
F0.0
sI80
F0.0
sI81
F0.0
sI82
F0.0
sI83
F0.0
sI84
F0.0
sI85
F0.0
sI86
F0.0
sI87
F0.0
sI88
F0.0
sI89
F0.0
sI90
F0.0
sI91
F0.0
sI92
F0.0
sI93
F0.0
sI94
F0.0
sI95
F0.0
sI96
F0.0
sI97
F0.0
sI98
F0.0
sI99
F0.0
sI100
F0.0
sI101
F0.0
sI102
F0.0
sI103
F0.0
sI104
F0.0
sI105
F0.0
sI106
F0.0
sI107
F0.0
sI108
F0.0
sI109
F0.0
sI110
F0.0
sI111
F0.0
sI112
F0.0
sI113
F0.0
sI114
F0.0
sI115
F0.0
sI116
F0.0
sI117
F0.0
sI118
F0.0
sI119
F0.0
sI120
F0.0
sI121
F0.0
sI122
F0.0
sI123
F0.0
sI124
F0.0
sI125
F0.0
sI126
F0.0
sI127
F0.0
sI128
F0.0
sI129
F0.0
sI130
F0.0
sI131
F1.0876853973463878e+57
sI132
F0.0
sI133
F0.0
sI134
F0.0
sI135
F0.0
sI136
F0.0
sI137
F0.0
sI138
F0.0
sI139
F0.0
sI140
F0.0
sI141
F0.0
sI142
F0.0
sI143
F0.0
sI144
F0.0
sI145
F3.479432065606385e+55
sI146
F2.1830601503918086e+57
sI147
F2.891451869838767e+56
sI148
F2.363598536034159e+57
sI149
F4.356458647922566e+57
sI150
F2.0221583061270876e+59
sI151
F5.65373348136786e+63
sI152
F5.309407346943954e+62
sI153
F1.5005531644227866e+67
sI154
F5.010965620808396e+66
sI155
F2.481806799476444e+67
sI156
F1.7237532881239402e+73
sI157
F7.402337224574527e+70
sI158
F5.4338105729802756e+69
sI159
F8.741854166522641e+69
sI160
F9.337571614567175e+70
sI161
F2.3915347039847193e+67
sI162
F5.542553065492774e+68
sI163
F1.7693840608332206e+64
sI164
F8.174068484824695e+64
sI165
F2.0373448871099563e+65
sI166
F1.0808757522512183e+65
sI167
F4.3317144770699535e+63
sI168
F3.855846586568923e+64
sI169
F6.238136582656645e+65
sI170
F6.557948086920983e+61
sI171
F3.087609624892116e+61
sI172
F2.866349276575494e+61
sI173
F6.8341684100872615e+59
sI174
F6.296474072555974e+61
sI175
F3.28137709597846e+57
sI176
F3.507426203296045e+57
sI177
F2.7544046745163302e+56
sI178
F8.846935252334758e+55
sI179
F2.644507517196888e+55
sI180
F2.9637471755199405e+55
sI181
F1.1090641476624037e+54
sI182
F3.189110177128425e+54
sI183
F1.0240543748446542e+53
sI184
F1.5892546615344904e+53
sI185
F4.5744942883705645e+52
sI186
F1.4057529820473443e+52
sI187
F2.407413849154186e+52
sI188
F4.324243049110484e+50
sI189
F2.219636165924935e+51
sI190
F1.5960513188874636e+50
sI191
F2.916709719077538e+49
sI192
F1.1090837989058439e+49
sI193
F8.837561591500357e+48
sI194
F7.100598867029222e+45
sI195
F9.097504904361377e+46
sI196
F5.574249531240403e+43
sI197
F8.731724652694581e+42
sI198
F5.179291431380266e+43
sI199
F1.9024725524663137e+43
sI200
F5.401310840024392e+43
sI201
F1.0791421729941748e+41
sI202
F7.271114709477165e+38
sI203
F2.277699176761863e+37
sI204
F2.0623845184663397e+35
sI205
F1.060865570542663e+35
sI206
F1.0264342217708487e+35
sI207
F1.7506316159599128e+34
sI208
F6.658070565917288e+34
sI209
F1.8588497805323957e+34
sI210
F1.2295495337075464e+34
sI211
F9.470720207715905e+32
sI212
F5.33733353435225e+30
sI213
F2.133519599131358e+30
sI214
F1.813594209565832e+26
sI215
F1.2332701648108684e+26
sI216
F4.410056092451907e+25
sI217
F1.9041697641875254e+25
sI218
F2.1182819234692315e+24
sI219
F5.3299470617154445e+23
sI220
F1.5371855137377725e+22
sI221
F8.091030285902572e+17
sI222
F9.464879014184585e+17
sI223
F9.245042152272466e+17
sI224
F5.1255541746485434e+17
sI225
F1.4419803252287203e+17
sI226
F200996394077715.34
sI227
F48199419105597.29
sI228
F25373509495511.76
sI229
F8493881667522.99
sI230
F1064506428390.9768
sI231
F2876262669.7024345
sI232
F121156195.75123335
sI233
F13146546.85904897
sI234
F424324.232536237
sI235
F204.63287709798482
sI236
F33.88754457092432
sI237
F24.919160356909526
s.