(dp0
I0
F2.9005106647276787e+22
sI1
F3.630189733281093e+34
sI2
F1.0677246644846058e+36
sI3
F8.245950512627216e+37
sI4
F6.699386860538192e+38
sI5
F3.459956832913497e+38
sI6
F5.945857582405367e+41
sI7
F7.702289899210749e+43
sI8
F3.250579798692203e+44
sI9
F1.5448771319596032e+44
sI10
F2.196234035713077e+48
sI11
F2.4167700514974886e+47
sI12
F3.781332567689106e+48
sI13
F4.00779646059381e+63
sI14
F1.5353076912945298e+74
sI15
F8.37331272915212e+72
sI16
F1.0558343064689826e+83
sI17
F1.3300165561492647e+89
sI18
F1.100947724755996e+93
sI19
F1.3552529711215253e+96
sI20
F2.2456572775893688e+97
sI21
F5.519220831520222e+96
sI22
F1.52129387211656e+99
sI23
F1.330603686888297e+100
sI24
F2.076682599024393e+100
sI25
F3.0598697482752764e+100
sI26
F4.3247363989248437e+99
sI27
F6.250473568214901e+98
sI28
F6.7080120724183165e+97
sI29
F3.3819879455194435e+96
sI30
F7.802269170387012e+94
sI31
F8.755085774623535e+91
sI32
F9.361016391334288e+92
sI33
F5.460287678766299e+91
sI34
F7.031113841856826e+89
sI35
F5.366103543985967e+87
sI36
F1.0504980714047687e+86
sI37
F9.87334148210333e+83
sI38
F4.327397042331292e+81
sI39
F1.2520665892724853e+78
sI40
F2.041627672337489e+75
sI41
F9.870937955393252e+72
sI42
F1.2993012428683518e+70
sI43
F3.716087414756394e+67
sI44
F1.071552887822145e+65
sI45
F1.4627790437973453e+62
sI46
F2.6934449148837405e+59
sI47
F1.9877121100261297e+56
sI48
F3.4479423289451745e+53
sI49
F2.7911171317304494e+50
sI50
F2.2444999099836208e+48
sI51
F2.580274125045053e+45
sI52
F1.8265360268645957e+42
sI53
F1.9805342088186963e+39
sI54
F2.2891904762782862e+36
sI55
F1.094646345266459e+33
sI56
F5.8543099649001885e+29
sI57
F2.9222896746369315e+27
sI58
F1.272141381064781e+25
sI59
F3.006024014160708e+22
sI60
F3.913469191789891e+19
sI61
F2.610584371783963e+18
sI62
F9.18814657055731e+16
sI63
F1825559262003506.2
sI64
F199375636805784.03
sI65
F2195134560524.707
sI66
F227475069426.55942
sI67
F2519963346.4687696
sI68
F488492643.1865581
sI69
F280910757.65636456
sI70
F949878.6514245716
sI71
F993.885445885521
sI72
F1.7793638662510145
s.