(dp0
I0
F0.6292784395031907
sI1
F0.782559110586956
sI2
F0.673557451968247
sI3
F0.7188266069416016
sI4
F0.9402321956317103
sI5
F0.7173313360101183
sI6
F0.8986164049384693
sI7
F0.7829702968143359
sI8
F0.7027044522053552
sI9
F0.6632025973557583
sI10
F0.716469915219275
sI11
F0.7751683398477216
sI12
F0.6657801289656449
sI13
F0.7470590465523654
sI14
F0.6821110632106338
sI15
F0.7740504967673862
sI16
F0.8243946636902624
sI17
F0.7462714543483133
sI18
F0.7292171830801026
sI19
F0.870663002587662
sI20
F0.6167698397502985
sI21
F0.7881854180288463
sI22
F0.7336413699349746
sI23
F0.9118506980446643
sI24
F0.7749867860441804
sI25
F0.7955884324106899
sI26
F0.8242426758866037
sI27
F0.7475090287498773
sI28
F0.8693604469631095
sI29
F0.7477371325467657
sI30
F0.7155804087906839
sI31
F0.7528381359798961
sI32
F0.6875270776479592
sI33
F0.7356753963347071
sI34
F0.868702552903563
sI35
F0.7803062467530877
sI36
F0.7709453555947423
sI37
F0.6963216307380347
sI38
F0.8026655934189888
sI39
F0.8528350484999729
sI40
F0.7132481056651327
sI41
F0.5728630586457673
sI42
F0.5973493325443486
sI43
F0.8718944829712421
sI44
F0.6855696788151
sI45
F0.8179692328920938
sI46
F0.9100814151913927
sI47
F0.8310434697678886
sI48
F0.801012965732554
sI49
F0.861095707707215
sI50
F0.6590535112915905
sI51
F0.8687802945659935
sI52
F0.6459756686352991
sI53
F0.679858215835706
sI54
F0.66059249992076
sI55
F0.7328387135133794
sI56
F0.7570433991363685
sI57
F0.828086888525456
sI58
F0.863425881917731
sI59
F0.8806451548660927
sI60
F0.813042393279044
sI61
F0.8184955909953127
sI62
F0.6607774141655998
sI63
F0.6916541986358271
sI64
F0.8703537720313681
sI65
F0.7135664840682414
sI66
F0.7083613661298807
sI67
F0.7258857945311923
sI68
F0.7040508634820661
sI69
F0.7950712681546772
sI70
F0.8993662530524307
sI71
F0.7816351855442336
sI72
F0.6472123851946279
sI73
F0.7999561469376739
sI74
F0.6707623247872889
sI75
F0.7232595081113207
sI76
F0.5562766721621244
sI77
F0.779961404693478
sI78
F0.6983569255227713
sI79
F0.8636879097643395
sI80
F0.7755607656213015
sI81
F0.8566621159917478
sI82
F0.6501844186477106
sI83
F0.9125373165513235
sI84
F0.8515771367665688
sI85
F0.7019425019779366
sI86
F0.9677970483032976
sI87
F0.8275907888200515
sI88
F0.6804935116427278
sI89
F0.8205752082635565
sI90
F0.7885010854336054
sI91
F0.8445528037637606
sI92
F0.6635401223871358
sI93
F0.7778293827040286
sI94
F0.7724390433151647
sI95
F0.7451816884482871
sI96
F0.870126480124447
sI97
F0.6552171200529044
sI98
F1.055926217037328
sI99
F0.7193345354061105
sI100
F0.8276635599720947
sI101
F0.7154512805848383
sI102
F0.89942846234269
sI103
F0.629421782790792
sI104
F0.7175752002366032
sI105
F0.8124709918059172
sI106
F1.0696017078203939
sI107
F1.087964335885418
sI108
F1.097789362089014
sI109
F1.1028241676776571
sI110
F1.1075164529415042
sI111
F1.121394551370857
sI112
F1.1260868584675974
sI113
F1.1281653241160399
sI114
F1.128779118197759
sI115
F1.1569377422970355
sI116
F1.1790581247369234
sI117
F1.183894146606156
sI118
F1.1874238689457965
sI119
F1.1912191372131673
sI120
F1.1912612080268747
sI121
F1.2124159290161134
sI122
F1.2125945155884206
sI123
F1.2133683666440138
sI124
F1.236144557106678
sI125
F1.2390338568208388
sI126
F1.2409753338329539
sI127
F1.2448230694615425
sI128
F1.2460141238082256
sI129
F1.2500162130423682
sI130
F1.2535498329647097
sI131
F1.2626296112025974
sI132
F1.2642941051624863
sI133
F1.26703604152917
sI134
F1.271581977613713
sI135
F1.2727975502685376
sI136
F1.2768087422205343
sI137
F1.2900379547091756
sI138
F1.300395922573581
sI139
F1.3021799659615985
sI140
F1.3114713801253912
sI141
F1.3169253505018355
sI142
F1.318900447470579
sI143
F1.3364285197843118
sI144
F1.3515254900372402
sI145
F1.355197904075259
sI146
F1.361742693280548
sI147
F1.3631462004197168
sI148
F1.3659444873351512
sI149
F1.368662525601985
sI150
F1.3697022470155025
sI151
F1.3753198885734013
sI152
F1.375415935314673
sI153
F1.3778032968296232
sI154
F1.3790209595261271
sI155
F1.3841076907808296
sI156
F1.3857352635546065
sI157
F1.3861334309396436
sI158
F1.3937367521436745
sI159
F1.4003406671136327
sI160
F1.4052477478371466
sI161
F1.4053087867822573
sI162
F1.4141447808816605
sI163
F1.41521028239592
sI164
F1.4194511854750087
sI165
F1.4343617569998717
sI166
F1.4456370855574368
sI167
F1.4479492354789056
sI168
F1.454811456520586
sI169
F1.465948311343571
sI170
F1.473416123782005
sI171
F1.4769036956123016
sI172
F1.488527716219295
sI173
F1.4909420572384144
sI174
F1.4977482387276182
sI175
F1.4982289265658744
sI176
F1.5066748411495374
sI177
F1.5169475086784323
sI178
F1.5196974538402537
sI179
F1.5209097149286062
sI180
F1.5283015580031996
sI181
F1.5349307002793418
sI182
F1.5353534991024622
sI183
F1.5413190380296253
sI184
F1.545660618055238
sI185
F1.5581139505639658
sI186
F1.5618076907212366
sI187
F1.5631626459441015
sI188
F1.5642011340944113
sI189
F1.565707430389192
s.