(dp0
I0
F0.8626768519001713
sI1
F0.687527866406749
sI2
F0.8459325742532133
sI3
F0.7242139768946194
sI4
F0.9446756308676993
sI5
F1.0082446689851698
sI6
F0.8068392975758403
sI7
F0.6474365956100494
sI8
F0.7852465477919497
sI9
F0.6384312708453601
sI10
F0.76171813514918
sI11
F0.7113793683318415
sI12
F0.7182096318027607
sI13
F0.5342828604035732
sI14
F0.46940434979197554
sI15
F0.6366626159211157
sI16
F0.78589746016604
sI17
F0.772675942792324
sI18
F0.8247878852819894
sI19
F0.6497782763930391
sI20
F0.5871371621317085
sI21
F0.6043564147547089
sI22
F0.6226641194595004
sI23
F0.6477352248486825
sI24
F0.5984715634161777
sI25
F0.7559621233265852
sI26
F0.6461310946344281
sI27
F0.6878235317050834
sI28
F0.5603242642516661
sI29
F0.7197591693664964
sI30
F0.8421884242470741
sI31
F0.697385161530331
sI32
F0.7583258418872747
sI33
F0.5091929075577373
sI34
F0.8772884588149148
sI35
F0.6096332212940572
sI36
F0.8137509254936206
sI37
F0.7206395982458276
sI38
F0.8293559566265867
sI39
F0.7832361571246702
sI40
F0.7444307193099324
sI41
F0.732754169304856
sI42
F0.749451655320009
sI43
F0.5977488143979874
sI44
F0.7658897960619886
sI45
F0.649309028536367
sI46
F0.7850617708635712
sI47
F0.6904160898750429
sI48
F0.6042789462708367
sI49
F0.6718252881772349
sI50
F0.6550218412423123
sI51
F0.7127418582276603
sI52
F0.6263025578959003
sI53
F0.7223030731933928
sI54
F0.7932846359711652
sI55
F0.558957757373548
sI56
F0.6522433136028496
sI57
F0.5689881138697783
sI58
F0.667573691205896
sI59
F0.7621846593550512
sI60
F0.6562517757020421
sI61
F0.6490974571496473
sI62
F0.7412835981199901
sI63
F0.4708449931423364
sI64
F0.7832190063974449
sI65
F0.6209356686174479
sI66
F0.599748281389493
sI67
F0.5213216467368726
sI68
F0.647785745958892
sI69
F0.7360091264969022
sI70
F0.5279379973502341
sI71
F0.7550477279696926
sI72
F0.7722366119481001
sI73
F0.7409787980744065
sI74
F0.6890293450150731
sI75
F0.8815748116565059
sI76
F0.6173992475275247
sI77
F0.7017828439060165
sI78
F0.6048179592149909
sI79
F0.6729870347568068
sI80
F0.5980441946882722
sI81
F0.634711838563035
sI82
F0.5586018215975808
sI83
F0.6846882939378374
sI84
F0.5968706664034198
sI85
F0.7001296627377531
sI86
F0.6338768809883708
sI87
F0.6736330165228606
sI88
F0.6827338996148835
sI89
F0.9309641832621065
sI90
F0.5971675453661605
sI91
F0.6537704111271465
sI92
F0.7627756641787051
sI93
F0.6239231142425945
sI94
F0.4930338992593404
sI95
F0.7531375710182304
sI96
F0.6836538718693623
sI97
F0.5116416574224503
sI98
F0.8449557888531758
sI99
F0.6520158284025686
sI100
F0.5782740028665732
sI101
F0.8431812902443436
sI102
F0.5138019673597032
sI103
F0.7823585624763476
sI104
F0.623580564293398
sI105
F0.7537754403162291
sI106
F0.8989507274955959
sI107
F0.5515526203037104
sI108
F0.6724293957443741
sI109
F0.6438326469788767
sI110
F0.6482297068671923
sI111
F0.5126749064152021
sI112
F0.7432800285748926
sI113
F0.5783922486339601
sI114
F0.7520387207571444
sI115
F0.5706002181064482
sI116
F0.8524454947162685
sI117
F0.5591988725875103
sI118
F0.7248643496749139
sI119
F0.8584668017655321
sI120
F0.7372061941373658
sI121
F0.8054647609632553
sI122
F0.6514392637947768
sI123
F0.8390750222307197
sI124
F0.5426092170171393
sI125
F0.6618415651719676
sI126
F0.6141175852517642
sI127
F0.6051250539972541
sI128
F0.7554695414582935
sI129
F0.6107812233112473
sI130
F0.6426330586961653
sI131
F1.0699484927422498
sI132
F0.7118326026534629
sI133
F0.7771354206917995
sI134
F0.6836762301201669
sI135
F0.7907764561288777
sI136
F0.5749775933993777
sI137
F0.5311053654910578
sI138
F0.5163995566528288
sI139
F0.6897907789978792
sI140
F0.6101324155347341
sI141
F0.5801294498725436
sI142
F0.754764293281194
sI143
F0.7965374631951951
sI144
F0.6203668025135103
sI145
F1.0707139358364817
sI146
F1.074493719817792
sI147
F1.0768139875984342
sI148
F1.07846148682974
sI149
F1.078580089081011
sI150
F1.0829610960582974
sI151
F1.0906521720620823
sI152
F1.0913348878130833
sI153
F1.0971216625423716
sI154
F1.0990285242391766
sI155
F1.1040431850318608
sI156
F1.1146374414071958
sI157
F1.115507612145012
sI158
F1.1156820048928968
sI159
F1.115756004190544
sI160
F1.1196708787403713
sI161
F1.1220025618983702
sI162
F1.1264769144455422
sI163
F1.1265286410971882
sI164
F1.1269567050859575
sI165
F1.1273349770752579
sI166
F1.1276811056372922
sI167
F1.1308024616982895
sI168
F1.1368348864684719
sI169
F1.140191459555322
sI170
F1.1404918524527154
sI171
F1.1408886827278284
sI172
F1.1413667473353244
sI173
F1.1415846974904271
sI174
F1.146938884487096
sI175
F1.1472918664502898
sI176
F1.1478686113221328
sI177
F1.1479820008824415
sI178
F1.1480488657231414
sI179
F1.1481309974604388
sI180
F1.1484217276363027
sI181
F1.148542132786221
sI182
F1.1485508832513376
sI183
F1.1485973954193227
sI184
F1.1486451222584901
sI185
F1.1488554301991547
sI186
F1.1493412108299044
sI187
F1.1494202293801061
sI188
F1.1497650109208486
sI189
F1.149808045537807
sI190
F1.1500110969967117
sI191
F1.1502061347773282
sI192
F1.1503553444416514
sI193
F1.1512731883959044
sI194
F1.1512759627795957
sI195
F1.1546101014137582
sI196
F1.1550016442252051
sI197
F1.1550349856388218
sI198
F1.1565495020884735
sI199
F1.1569899603996632
sI200
F1.1571327277221926
sI201
F1.1610199654806368
sI202
F1.1631417230773993
sI203
F1.163305482074636
sI204
F1.163461188225786
sI205
F1.163679284696737
sI206
F1.1639825008535651
sI207
F1.16475360581556
sI208
F1.1649884996231954
sI209
F1.1655616187382742
sI210
F1.1655728603650752
sI211
F1.166153289078406
sI212
F1.1669735864154962
sI213
F1.169921155135567
sI214
F1.1701430672208688
sI215
F1.1703557660112494
sI216
F1.1710104660822833
sI217
F1.1712546096846257
sI218
F1.1721353757586495
sI219
F1.1724672401831002
sI220
F1.1743537928544092
sI221
F1.1744491541051358
sI222
F1.1746569137359555
sI223
F1.1748036817268939
sI224
F1.1754727564085163
sI225
F1.175765134580065
sI226
F1.1760962799908552
sI227
F1.1764129691890304
sI228
F1.1764546551132606
sI229
F1.176574310651929
sI230
F1.1771016907140694
sI231
F1.1780146325953504
sI232
F1.179106035984506
sI233
F1.180142536878566
sI234
F1.1807817817476054
sI235
F1.180913212213151
sI236
F1.1826576693514421
sI237
F1.184409161815017
s.