(dp0
I0
F1.053087217725703
sI1
F1.0878007554267644
sI2
F1.0962985642984235
sI3
F1.1024565255155179
sI4
F1.1039818387057645
sI5
F1.1077801130697948
sI6
F1.1159937051738336
sI7
F1.1268149585211638
sI8
F1.12935733407048
sI9
F1.130641293151212
sI10
F1.1459200114782448
sI11
F1.1484797335995003
sI12
F1.151622901017046
sI13
F1.2060611389987876
sI14
F1.257464294003507
sI15
F1.262321743777342
sI16
F1.3018936726181831
sI17
F1.3406713146736915
sI18
F1.3748066150845046
sI19
F1.4050831187858321
sI20
F1.431998879168864
sI21
F1.4321180717787727
sI22
F1.4577269095025582
sI23
F1.480824673903546
sI24
F1.501675035296822
sI25
F1.5205901481327015
sI26
F1.537827026540426
sI27
F1.5535991814891954
sI28
F1.568085435732062
sI29
F1.5814366825027548
sI30
F1.5937811256693428
sI31
F1.5961046440608606
sI32
F1.6052283844151107
sI33
F1.6158727390898604
sI34
F1.6257957205440299
sI35
F1.6350681926340074
sI36
F1.6437520398576115
sI37
F1.6519015447086383
sI38
F1.6595645192654476
sI39
F1.6667832406542287
sI40
F1.6735952288996883
sI41
F1.6800338972755124
sI42
F1.686129098871545
sI43
F1.691907588186658
sI44
F1.6973934127613486
sI45
F1.7026082469087611
sI46
F1.7075716772858778
sI47
F1.7123014482184122
sI48
F1.7168136732416914
sI49
F1.721123018161102
sI50
F1.7252428600054475
sI51
F1.7291854254959032
sI52
F1.7329619120443929
sI53
F1.7365825937990986
sI54
F1.7400569148486542
sI55
F1.7433935713626756
sI56
F1.7466005841705674
sI57
F1.7496853630520555
sI58
F1.7526547638227257
sI59
F1.755515139139061
sI60
F1.758272383814385
sI61
F1.760312897294226
sI62
F1.7609319753251693
sI63
F1.7629859305158018
sI64
F1.7634990100927732
sI65
F1.7655642115336456
sI66
F1.7659782360457243
sI67
F1.7680526896304691
sI68
F1.770204219614984
sI69
F1.7726138726980225
sI70
F1.7749409635316757
sI71
F1.7771896631293287
sI72
F1.7793638662510145
s.