(dp0
I0
F0.8195808571179111
sI1
F0.6488937577176261
sI2
F0.5593871611535177
sI3
F0.7254879305318456
sI4
F0.8400135659547672
sI5
F0.6624996154575584
sI6
F0.8005055214808445
sI7
F0.7062906654187804
sI8
F0.6510273086590534
sI9
F0.902885334057344
sI10
F0.5625154930306966
sI11
F0.6636602879365825
sI12
F0.7400886454628288
sI13
F0.7531336437345517
sI14
F0.7481266426730635
sI15
F0.6166381186698302
sI16
F0.7409446710952476
sI17
F0.7119751217458721
sI18
F0.5563091624983927
sI19
F0.7091226827687724
sI20
F0.6019020924309226
sI21
F0.7861357418283372
sI22
F0.8228177770038019
sI23
F0.7368207214003268
sI24
F0.669890598555668
sI25
F0.6079544826477783
sI26
F0.7020377445843815
sI27
F0.8080490578238426
sI28
F0.5978981687581564
sI29
F0.9236311434435516
sI30
F0.6822113196915365
sI31
F0.6480575171364495
sI32
F0.628927167675289
sI33
F0.6131370412785688
sI34
F0.7314746800241125
sI35
F0.9248885225961054
sI36
F0.7067434210998544
sI37
F0.624406874726523
sI38
F0.5139461791305773
sI39
F0.7196380646463718
sI40
F0.4806261216830796
sI41
F0.7480897093920695
sI42
F0.8177284729429302
sI43
F0.7321873720605994
sI44
F0.7666753856206434
sI45
F0.7724984032939646
sI46
F0.9330454102457881
sI47
F0.8110427654560044
sI48
F0.7239451060176585
sI49
F0.6882120420687623
sI50
F0.674998685141535
sI51
F0.5157092806102055
sI52
F0.8960499567656015
sI53
F0.9220862271923158
sI54
F0.7534886122089755
sI55
F0.850381566254014
sI56
F0.6796515462039825
sI57
F0.9926826651187743
sI58
F0.9685615661644393
sI59
F0.7708630850363545
sI60
F0.5895749381066255
sI61
F0.7042888496538451
sI62
F0.7180833344565021
sI63
F0.668641906836219
sI64
F0.7579585904043704
sI65
F0.5960276981599022
sI66
F0.7572402411299406
sI67
F0.8597175423116292
sI68
F0.7495518736834574
sI69
F0.7117072153140134
sI70
F0.825026084122668
sI71
F0.699568515977794
sI72
F0.7472129610860094
sI73
F0.6848614407053042
sI74
F0.7668871873193486
sI75
F0.7356769016444635
sI76
F0.687724638494112
sI77
F0.9002052160094531
sI78
F0.7464383485766255
sI79
F0.9613116238595447
sI80
F0.8338911245697496
sI81
F0.5918540363849802
sI82
F0.8091052292779057
sI83
F0.6427751398232735
sI84
F0.8000070907488572
sI85
F0.8132546184804375
sI86
F0.8675349167428785
sI87
F0.8769171376602107
sI88
F0.7704110482100897
sI89
F0.7444417715101777
sI90
F0.7989134269275999
sI91
F0.8843284561972122
sI92
F0.7504435849381095
sI93
F0.7515087331803076
sI94
F0.7750363662230895
sI95
F0.7428833810449138
sI96
F0.8066153845549904
sI97
F0.6500776622531639
sI98
F0.7711039244861078
sI99
F0.7227719013327445
sI100
F0.8552391089913889
sI101
F0.8028844210536763
sI102
F0.8154243737279065
sI103
F0.8386901666631306
sI104
F0.7977863588860066
sI105
F0.8857951200984888
sI106
F0.7197234881800862
sI107
F0.8123063449225456
sI108
F0.9817717549882783
sI109
F0.7979871391214242
sI110
F0.8519815565645807
sI111
F0.6883561942221574
sI112
F0.8536001319648878
sI113
F0.6202522181616432
sI114
F0.7557711711980954
sI115
F0.7662410764458136
sI116
F0.7212105396573416
sI117
F0.7409938703736623
sI118
F0.7653745227372923
sI119
F0.8685655633455991
sI120
F0.8642013967265858
sI121
F0.67085085706198
sI122
F0.7543856328689491
sI123
F0.7279850278047244
sI124
F0.5394763540427925
sI125
F0.7378239740862849
sI126
F0.8383601993915928
sI127
F0.8057342879582585
sI128
F0.6905454963844053
sI129
F0.8528597816406196
sI130
F0.8927171224656547
sI131
F0.7904339040365189
sI132
F0.6953466909469568
sI133
F0.8036240025650807
sI134
F0.7026644161598525
sI135
F0.6654209143072918
sI136
F0.7894223210328
sI137
F0.7809221473531602
sI138
F0.6598665560748194
sI139
F0.7771746415008112
sI140
F0.8038021085926714
sI141
F0.664152249605757
sI142
F0.801861132517321
sI143
F0.8345840407822924
sI144
F0.7754528144708517
sI145
F0.8140121515619343
sI146
F0.8079417050054019
sI147
F0.8225576276449935
sI148
F0.9467352763266177
sI149
F0.7739829130825873
sI150
F0.7780923592779725
sI151
F0.7733344688047659
sI152
F0.716474386515455
sI153
F0.6934203894300881
sI154
F0.6417972947130763
sI155
F0.6857974421878492
sI156
F0.8304901745165771
sI157
F0.9257983431008228
sI158
F0.7370847989924327
sI159
F0.9118295725891845
sI160
F0.7782470396846681
sI161
F0.7778426914281416
sI162
F0.9706307694643217
sI163
F0.9262217299708109
sI164
F0.6669978450510308
sI165
F0.9557704570839949
sI166
F0.7461879597174428
sI167
F0.7566760519236038
sI168
F0.7153711684153721
sI169
F0.7178908856400545
sI170
F0.7185168736676066
sI171
F0.834039213529634
sI172
F0.7231315947377448
sI173
F0.7626229685339427
sI174
F0.7977417686693276
sI175
F0.757674272706913
sI176
F0.6146012133206362
sI177
F1.0191505342014189
sI178
F0.6052208038716815
sI179
F0.672197469583528
sI180
F1.1017675010217527
sI181
F0.6941390088653554
sI182
F0.6940710159255503
sI183
F0.7740093385617721
sI184
F0.8135251345490655
sI185
F0.752532713834331
sI186
F0.8912169064068802
sI187
F0.9052727376128624
sI188
F0.8178013571030731
sI189
F0.8900595343127726
sI190
F0.8540226666462802
sI191
F0.9874527060062042
sI192
F0.8828174615783351
sI193
F0.8011632555893107
sI194
F0.5867227545106133
sI195
F0.7542619404251061
sI196
F0.8197350032693478
sI197
F0.8328256977627808
sI198
F0.673677549463082
sI199
F0.7924318890554403
sI200
F0.8133968714520126
sI201
F0.7766331971853291
sI202
F0.8641806736714979
sI203
F0.735238114083177
sI204
F0.6898660767540077
sI205
F0.8473426161258231
sI206
F0.6430129609711672
sI207
F0.8213414904880936
sI208
F1.1069345648052042
sI209
F1.1210943720121866
sI210
F1.1253527213775358
sI211
F1.1709224332321404
sI212
F1.172215513401397
sI213
F1.1735738820765556
sI214
F1.1849702622561469
sI215
F1.1974150825635044
sI216
F1.2135139722012163
sI217
F1.213966474871313
sI218
F1.2159369691386197
sI219
F1.2159510376536606
sI220
F1.2281484226680677
sI221
F1.236177117538893
sI222
F1.2378660287443983
sI223
F1.2432374880424613
sI224
F1.2450144619065102
sI225
F1.253515776425146
sI226
F1.2562037323014632
sI227
F1.26090049657997
sI228
F1.277469088238405
sI229
F1.2809934759830242
sI230
F1.2867752813275377
sI231
F1.2884596441569935
sI232
F1.2890341554278795
sI233
F1.2957659100265788
sI234
F1.3024185839915092
sI235
F1.324059983671225
sI236
F1.3325156666994822
sI237
F1.3335600545055102
sI238
F1.3376229298799762
sI239
F1.3416382902068902
sI240
F1.343797708394741
sI241
F1.3552445913447606
sI242
F1.357158404982917
sI243
F1.3597496121002641
sI244
F1.3609732535434569
sI245
F1.363106257424124
sI246
F1.370571770107996
sI247
F1.3794126015039203
sI248
F1.3856173264331821
sI249
F1.3864566474213889
sI250
F1.3881373222998024
sI251
F1.391103052386542
sI252
F1.3958444286149723
sI253
F1.3996373619576064
sI254
F1.4013605484877099
sI255
F1.4046042197535278
sI256
F1.4129547403559988
sI257
F1.4133974750898672
sI258
F1.4153432091397513
sI259
F1.4214597807160065
sI260
F1.424089835692612
sI261
F1.4267380492578816
sI262
F1.4345446228796472
sI263
F1.441420655784412
sI264
F1.4445584458884326
sI265
F1.445002400095028
sI266
F1.4467061298189985
sI267
F1.4470034075358096
sI268
F1.4530195790100957
sI269
F1.457584589189425
sI270
F1.4673365891226657
sI271
F1.4681104108052332
sI272
F1.4686559148397107
sI273
F1.474550579619046
sI274
F1.479666535615591
sI275
F1.480678283706013
sI276
F1.4810126624821467
sI277
F1.4842042012555376
sI278
F1.484870276723555
sI279
F1.489268908479596
sI280
F1.4901062676941113
sI281
F1.4904553888286145
sI282
F1.5016078858100652
sI283
F1.5046731715680899
sI284
F1.5055696170665107
sI285
F1.5103246561706438
sI286
F1.5108696746191956
sI287
F1.5132109128990057
sI288
F1.513817298393659
sI289
F1.515766840914603
sI290
F1.5160651567898515
sI291
F1.51797910201718
sI292
F1.5188823287789055
sI293
F1.5192125354751926
sI294
F1.5212381439907205
sI295
F1.521258763675537
sI296
F1.5224723118572152
sI297
F1.5225123965601055
sI298
F1.5296369967886871
sI299
F1.5303063655713856
sI300
F1.5354542666580668
sI301
F1.5361737234587887
sI302
F1.536873679702485
sI303
F1.5416050295773078
sI304
F1.5425317044363487
s.